
build/program.elf:     file format elf32-littleriscv

Contents of section .text.init:
 0000 17010100 130101fe ef008000 6f000000  ............o...
Contents of section .text:
 0010 97210000 938101e3 13854143 13864143  .!........AC..AC
 0020 3306a640 93050000 ef10402e 17150000  3..@......@.....
 0030 1305c54d 63080500 17150000 1305454e  ...Mc.........EN
 0040 ef10804c ef10c023 03250100 93054100  ...L...#.%....A.
 0050 13060000 ef10c05e 6f10801f 03c7819e  .......^o.......
 0060 63100704 130101ff 23248100 13840700  c.......#$......
 0070 23261100 93070000 63880700 13854143  #&......c.....AC
 0080 97000000 e7000000 93071000 8320c100  ............. ..
 0090 2384f19e 03248100 13010101 67800000  #....$......g...
 00a0 67800000 93070000 638a0700 9385c19e  g.......c.......
 00b0 13854143 17030000 67000000 67800000  ..AC....g...g...
 00c0 83270500 9386d6ff 63c8d702 83a70500  .'......c.......
 00d0 6354f002 83a70500 b307f040 23a0f500  cT.........@#...
 00e0 03274500 93072000 63c6e700 83a74500  .'E... .c.....E.
 00f0 63c60702 67800000 83270500 13063600  c...g....'....6.
 0100 e340f6fe 83a70500 e3dc07fc 83a70500  .@..............
 0110 b307f040 23a0f500 6ff09ffc 83a74500  ...@#...o.....E.
 0120 b307f040 23a2f500 67800000 03254500  ...@#...g....%E.
 0130 3325b500 13451500 67800000 03274500  3%...E..g....'E.
 0140 93076020 63d0e708 03274500 9307a020  ..` c....'E.... 
 0150 63cae706 83270500 93d74740 63c4c706  c....'....G@c...
 0160 83270500 13072600 93d74740 634cf704  .'....&...G@cL..
 0170 83a74500 6358f004 83a74500 13073000  ..E.cX....E...0.
 0180 b307f040 23a2f500 83270500 83a60500  ...@#....'......
 0190 93d74740 3386c740 9307f6ff b387d700  ..G@3..@........
 01a0 23a0f500 83a70500 6356f700 23a0e500  #.......cV..#...
 01b0 67800000 03a70500 9307d0ff 6354f700  g...........cT..
 01c0 23a0f500 67800000 83284500 03270500  #...g....(E..'..
 01d0 93070500 03a84500 13574740 1305c7ff  ......E..WG@....
 01e0 9356f501 b386a600 93d61640 63440812  .V.........@cD..
 01f0 03a84700 03a54500 6356a000 1305c011  ..G...E.cV......
 0200 63540505 83a84700 03a80700 83a60500  cT....G.........
 0210 13d7f841 1377f700 33071701 13574740  ...A.w..3....WG@
 0220 63c20608 03a80700 83a60500 13050000  c...............
 0230 635ad000 83a70700 9306e000 93f7f700  cZ..............
 0240 638ed712 67800000 1307d7ff 13056002  c...g.........`.
 0250 e36ae5fa 13083800 1357f841 1377f700  .j....8..W.A.w..
 0260 33080701 13584840 13172800 33070701  3....XH@..(.3...
 0270 13172700 33070741 3307e600 b306d700  ..'.3..A3.......
 0280 03c70600 e30007f8 1307f7ff 2380e600  ............#...
 0290 83a74500 13052000 b307f040 23a2f500  ..E... ....@#...
 02a0 67800000 03a50700 93062000 1375f500  g......... ..u..
 02b0 e31ad5f6 9306f011 e3c616f7 13584840  .............XH@
 02c0 1303c8ff 93066002 e3ee66f4 93162700  ......`...f...'.
 02d0 1308b8ff b386e600 1353f801 93962600  .........S....&.
 02e0 33080301 b386e640 13581840 b306d600  3......@.X.@....
 02f0 b3860601 03c80600 e30608f2 1308f8ff  ................
 0300 23800601 83a70500 b307f040 23a0f500  #..........@#...
 0310 67800000 1385c800 1308e012 e36aa8ec  g............j..
 0320 1305d7ff 13086002 e364a8ec 9388d8ff  ......`..d......
 0330 13d5f841 1375f500 b3081501 93d84840  ...A.u........H@
 0340 13952800 33051501 13152500 33051541  ..(.3.....%.3..A
 0350 3305a600 3305d500 03480500 e30a08e8  3...3....H......
 0360 1308f8ff 23000501 83a74500 13052000  ....#.....E... .
 0370 b307f040 23a2f500 67800000 9307f011  ...@#...g.......
 0380 e3c217ed 13584840 9306e8ff 93076002  .....XH@......`.
 0390 e3ead7ea 93172700 1308d8ff b387e700  ......'.........
 03a0 93972700 9356f801 3387e740 33880601  ..'..V..3..@3...
 03b0 13581840 3306e600 33060601 83470600  .X.@3...3....G..
 03c0 e38207e8 9387f7ff 2300f600 83a70500  ........#.......
 03d0 13052000 b307f040 23a0f500 67800000  .. ....@#...g...
 03e0 93070500 03254500 13076020 6358a700  .....%E...` cX..
 03f0 03a54700 1307a020 6356a716 03a60700  ..G.... cV......
 0400 1307c029 6350c70e 03a70500 635ce00c  ...)cP......c\..
 0410 03a70500 3307e040 23a0e500 03a64700  ....3..@#.....G.
 0420 13072000 6346c700 03a74500 634c0718  .. .cF....E.cL..
 0430 83a84700 03a70700 03a84500 13574740  ..G.......E..WG@
 0440 1305c7ff 1356f501 3306a600 13561640  .....V..3....V.@
 0450 634a081e 03a84700 03a54500 6356a000  cJ....G...E.cV..
 0460 1305c011 6352050b 03a64700 03a80700  ....cR....G.....
 0470 03a50500 1357f641 1377f700 3307c700  .....W.A.w..3...
 0480 13574740 63480514 83a80700 03a80500  .WG@cH..........
 0490 13050000 635a0001 03a80700 1303e000  ....cZ..........
 04a0 1378f800 63046820 83a60500 03a78700  .x..c.h ........
 04b0 3307d700 23a4e700 03a78700 13575740  3...#........WW@
 04c0 23a0e700 83a64500 03a7c700 3307d700  #.....E.....3...
 04d0 23a6e700 03a7c700 13575740 23a2e700  #........WW@#...
 04e0 67800000 03a60700 13072004 e348c7f2  g......... ..H..
 04f0 03a70500 e35407f2 03a70500 3307e040  .....T......3..@
 0500 23a0e500 6ff09ff1 1307d7ff 13056002  #...o.........`.
 0510 e36ce5f4 13083800 1357f841 1377f700  .l....8..W.A.w..
 0520 33080701 13584840 13172800 33070701  3....XH@..(.3...
 0530 13172700 33070741 3387e600 3306c700  ..'.3..A3...3...
 0540 03470600 e30207f2 1307f7ff 2300e600  .G..........#...
 0550 03a74500 13052000 3307e040 23a2e500  ..E... .3..@#...
 0560 6ff09ff4 03a70700 13574740 e348c7e8  o........WG@.H..
 0570 03a70700 13052600 13574740 e340e5e8  ......&..WG@.@..
 0580 03a74500 e35ce0e6 03a74500 13053000  ..E..\....E...0.
 0590 3307e040 23a2e500 03a70700 03a80500  3..@#...........
 05a0 13574740 3306c740 1307f6ff 33070701  .WG@3..@....3...
 05b0 23a0e500 03a70500 635ce514 23a0a500  #.......c\..#...
 05c0 6ff0dfe3 03a74500 3307e040 23a2e500  o.....E.3..@#...
 05d0 6ff01fe6 03a50700 93082000 1375f500  o......... ..u..
 05e0 e31415eb 9308f011 e3c0c8ea 13584840  .............XH@
 05f0 1303c8ff 93086002 e3e868e8 93182700  ......`...h...'.
 0600 1308b8ff b388e800 1353f801 93982800  .........S....(.
 0610 33030301 3388e840 33880601 93581340  3...3..@3....X.@
 0620 33081801 83480800 e38008e6 9388f8ff  3....H..........
 0630 23001801 03a70500 3307e040 23a0e500  #.......3..@#...
 0640 6ff09fe6 1385c800 1308e012 e364a8e0  o............d..
 0650 1305d7ff 13086002 e36ea8de 9388d8ff  ......`..n......
 0660 13d5f841 1375f500 b3081501 93d84840  ...A.u........H@
 0670 13952800 33051501 13152500 33051541  ..(.3.....%.3..A
 0680 3385a600 3305c500 03480500 e30408dc  3...3....H......
 0690 1308f8ff 23000501 03a74500 13052000  ....#.....E... .
 06a0 3307e040 23a2e500 6ff01fe0 1308f011  3..@#...o.......
 06b0 e34cc8de 93d84840 1388e8ff 13066002  .L....H@......`.
 06c0 e36406df 13162700 9388d8ff 3306e600  .d....'.....3...
 06d0 13d8f801 13162600 3307e640 b3081801  ......&.3..@....
 06e0 b386e600 93d81840 b3861601 03c70600  .......@........
 06f0 e30c07da 1307f7ff 2380e600 03a70500  ........#.......
 0700 13052000 3307e040 23a0e500 6ff0dfd9  .. .3..@#...o...
 0710 03a60500 1307d0ff e352e6ce 23a0e500  .........R..#...
 0720 6ff0dfcd 83a7819c 63980702 9387c19d  o.......c.......
 0730 23ac019c 83a60700 13077002 634ad700  #.........p.cJ..
 0740 83a60700 13073000 6346d700 13074000  ......0.cF....@.
 0750 23a0e700 67800000 9387c19d 03a6819d  #...g...........
 0760 83a60700 b386c600 23a0d700 6ff05ffc  ........#...o._.
 0770 130101fe 2326f100 b7070411 2328e100  ....#&......#(..
 0780 03a70700 232cc100 232eb100 9347f7ff  ....#,..#....G..
 0790 232ad100 13061000 93f73700 638cc704  #*........7.c...
 07a0 93062000 6388d708 638e0704 23aaf19c  .. .c...c...#...
 07b0 93774700 63860700 93061000 23a6d19c  .wG.c.......#...
 07c0 13778700 9307f0ff 63160700 b7b7aaaa  .w......c.......
 07d0 9387a7aa 23aef1fa 8325c101 03268101  ....#....%...&..
 07e0 83264101 03270101 8327c100 13010102  .&A..'...'......
 07f0 73002030 03a6419d e31a06fa 23a8f19c  s. 0..A.....#...
 0800 6ff0dffa 83a5419d 638ec502 83a5419d  o.....A.c.....A.
 0810 13062000 e39cc5f8 83a5019d 13061000  .. .............
 0820 e396c5f8 03a6819d 13061600 23acc19c  ............#...
 0830 6ff0dff7 03a6419d e31a06f6 23a8019c  o.....A.....#...
 0840 6ff0dff6 03a6019d e31206fc 03a6819d  o...............
 0850 1306f6ff 23acc19c 6ff05ff5 23a4019c  ....#...o._.#...
 0860 23a6019c 9387c19d 13074001 23a0e700  #.........@.#...
 0870 13078020 23a2e700 938741a0 13070015  ... #.....A.....
 0880 23a0e700 37370000 130707a0 23a4e700  #...77......#...
 0890 13072020 23a2e700 37470000 13070704  ..  #...7G......
 08a0 23a6e700 13072000 23a8e700 1307e0ff  #..... .#.......
 08b0 23aae700 67800000 130101ff 13050000  #...g...........
 08c0 23248100 23261100 ef00c078 138441a0  #$..#&.....x..A.
 08d0 938701fe 13070402 93864715 83a80700  ..........G.....
 08e0 03a84700 03a58700 83a5c700 03a60701  ..G.............
 08f0 23201701 23220701 2324a700 2326b700  # ..#"..#$..#&..
 0900 2328c700 93874701 13074701 e398d7fc  #(....G...G.....
 0910 83d70700 2310f700 ef004075 23a2019c  ....#.....@u#...
 0920 13073000 23a0e19c 23a4019c 23a6019c  ..0.#...#...#...
 0930 9387c19d 13074001 23a0e700 13078020  ......@.#...... 
 0940 23a2e700 93070015 2320f400 b7370000  #.......# ...7..
 0950 938707a0 2324f400 93072020 2322f400  ....#$....  #"..
 0960 b7470000 93870704 2326f400 93072000  .G......#&.... .
 0970 2328f400 9307e0ff 8320c100 232af400  #(....... ..#*..
 0980 03248100 13010101 67800000 938741a0  .$......g.....A.
 0990 03a60700 83a64700 130101fd 03a78700  ......G.........
 09a0 83a7c700 2320c100 2322d100 2324e100  ....# ..#"..#$..
 09b0 13050100 23261102 23248102 23229102  ....#&..#$..#"..
 09c0 23202103 232e3101 2326f100 ef00c04f  # !.#.1.#&.....O
 09d0 83a9419c 03a5419c 9305a000 83a4419c  ..A...A.......A.
 09e0 ef00c07b 9305a000 ef009003 13040500  ...{............
 09f0 93054006 13850400 ef00407a 9305a000  ..@.......@z....
 0a00 ef001002 93178500 03a9c1fb 9305a000  ................
 0a10 13850900 13144400 3364f400 ef005000  ......D.3d....P.
 0a20 b7350000 13060900 3365a400 93852523  .5......3e....%#
 0a30 ef00c033 03a5019c 03a6c1fb b7650000  ...3.........e..
 0a40 93852543 ef008032 03248102 9387c19d  ..%C...2.$......
 0a50 03a50700 8320c102 83244102 03290102  ..... ...$A..)..
 0a60 8329c101 83a54700 13010103 6f000039  .)....G.....o..9
 0a70 93878113 9356c540 13578540 1376f500  .....V.@.W.@.v..
 0a80 130101fd 3386c700 93f6f600 1377f700  ....3........w..
 0a90 13554540 23268102 23203103 b386d700  .UE@#&..# 1.....
 0aa0 3387e700 83494601 034f8602 0344e601  3....IF..O...D..
 0ab0 1375f500 23249102 23222103 232a6101  .u..#$..#"!.#*a.
 0ac0 23287101 23268101 b387a700 0349a600  #(q.#&.......I..
 0ad0 03cce601 83cb4601 83440600 03c58602  ......F..D......
 0ae0 034b8702 0346e701 83434701 232c5101  .K...F...CG.#,Q.
 0af0 8342a700 83caa600 83ce8702 03cee701  .B..............
 0b00 03c34701 232e4101 83c8a700 03ca0600  ..G.#.A.........
 0b10 131f8f01 93968901 13148401 834f0700  .............O..
 0b20 33648401 13178901 3365af00 131b8b00  3d......3e......
 0b30 b3e67601 13168600 93938300 03c80700  ..v.............
 0b40 33675701 139f2500 33656501 3366c400  3gW...%.3ee.3f..
 0b50 93928200 939e0e01 131e0e01 b3e67600  ..............v.
 0b60 13130301 b705f0ff b385e501 93948401  ................
 0b70 33675700 93980801 3365d501 3366c601  3gW.....3e..3f..
 0b80 b3e66600 b3e74401 939f8f00 33671701  ..f...D.....3g..
 0b90 23a0a500 23a0c5f0 23a0d5e0 23a0e5d0  #...#...#...#...
 0ba0 b3e7f701 0324c102 13180801 b3e70701  .....$..........
 0bb0 23a0f5c0 83248102 03294102 83290102  #....$...)A..)..
 0bc0 032ac101 832a8101 032b4101 832b0101  .*...*...+A..+..
 0bd0 032cc100 13010103 67800000 13878113  .,......g.......
 0be0 13588540 93564540 1375f500 130101fd  .X.@.VE@.u......
 0bf0 b307a700 93f6f600 1375f800 23268102  .........u..#&..
 0c00 b306d700 03c40707 3307a700 23268101  ........3...#&..
 0c10 03c30607 034c0707 23222103 23249101  .....L..#"!.#$..
 0c20 2322a101 83cc4603 03cde703 83c36706  #"....F.......g.
 0c30 83c2c705 83cf2705 03cf8704 03c94703  ......'.......G.
 0c40 03ce8604 23203103 232e4101 232c5101  ....# 1.#.A.#,Q.
 0c50 232a6101 23287101 03cbc605 83cb6606  #*a.#(q.......f.
 0c60 83ca2605 034a8704 8349e703 83486706  ..&..J...I...Hg.
 0c70 0348c705 03452705 83cee603 13144401  .H...E'.......D.
 0c80 23249102 33648401 83444703 1313a300  #$..3d...DG.....
 0c90 93934301 93924201 939f4f01 13174d01  ..C...B...O...M.
 0ca0 9397ac00 13194901 9316ae00 33636400  ......I.....3cd.
 0cb0 139e2500 131f4f01 b705f0ff b385c501  ..%...O.........
 0cc0 b3e81301 33e80201 9393ab00 9312ab00  ....3...........
 0cd0 33e5af00 336f4f01 939faa00 33673701  3...3oO.....3g7.
 0ce0 b3e72701 939eae00 33736600 23a06500  ..'.....3sf.#.e.
 0cf0 b3e79700 0324c102 b3e87800 33685800  .....$....x.3hX.
 0d00 3365f501 b366df00 3367d701 b3f8c800  3e...f..3g......
 0d10 33780601 3375a600 b376d600 3377e600  3x..3u...v..3w..
 0d20 b3f7c700 23a015f1 23a005e1 23a0a5d0  ....#...#...#...
 0d30 23a0d5c0 23a0e5b0 23a0f5a0 83248102  #...#...#....$..
 0d40 03294102 83290102 032ac101 832a8101  .)A..)...*...*..
 0d50 032b4101 832b0101 032cc100 832c8100  .+A..+...,...,..
 0d60 032d4100 13010103 67800000 13534540  .-A.....g....SE@
 0d70 1373f300 13172300 9387411b 139e2500  .s....#...A...%.
 0d80 937ef500 93586500 33036040 3385e700  .~...Xe.3.`@3...
 0d90 b706f0ff b7f7efff b386c601 13132300  ..............#.
 0da0 330efe00 939e2e00 93f8c803 b305a300  3...............
 0db0 33871501 83278525 03278725 b385d501  3....'.%.'.%....
 0dc0 83a58525 1398e701 1317c700 93950501  ...%............
 0dd0 93d72740 33670701 b3e7b700 3377e600  ..'@3g......3w..
 0de0 23a0e600 b3f7c700 23a2f600 938606f0  #.......#.......
 0df0 130585fd e31cdefa 67800000 130101ff  ........g.......
 0e00 2324a100 2326b100 8327c100 83a6419e  #$..#&...'....A.
 0e10 93976700 3707f0ff b387d700 93972700  ..g.7.........'.
 0e20 b307f700 23a00700 23a20700 23a40700  ....#...#...#...
 0e30 23a00710 23a20710 23a40710 23a00720  #...#...#...#.. 
 0e40 23a20720 23a40720 23a00730 23a20730  #.. #.. #..0#..0
 0e50 23a40730 23a00740 23a20740 23a40740  #..0#..@#..@#..@
 0e60 83258100 8327c100 9306f0ff 93976700  .%...'........g.
 0e70 b387b700 93972700 b307f700 23a0d700  ......'.....#...
 0e80 23a2d700 23a4d700 23a0d710 23a2d710  #...#...#...#...
 0e90 23a4d710 23a0d720 23a2d720 23a4d720  #...#.. #.. #.. 
 0ea0 23a0d730 23a2d730 23a4d730 23a0d740  #..0#..0#..0#..@
 0eb0 23a2d740 23a4d740 83278100 23a2f19e  #..@#..@.'..#...
 0ec0 13010101 67800000 9386c1b7 83a50600  ....g...........
 0ed0 83a74600 03a74600 9385e5ff 93d54540  ..F...F.......E@
 0ee0 13962500 3708f0ff 9387e7ff 13072700  ..%.7.........'.
 0ef0 33060601 6340f702 13978700 3307e600  3...c@......3...
 0f00 23200700 03a74600 93871700 13072700  # ....F.......'.
 0f10 e354f7fe 03a60600 13062600 13564640  .T........&..VF@
 0f20 6300b604 03a74600 83a74600 1307e7ff  c.....F...F.....
 0f30 93872700 63c6e702 b705f0ff 93176700  ..'.c.........g.
 0f40 b387c700 93972700 b387f500 23a00700  ......'.....#...
 0f50 83a74600 13071700 93872700 e3d0e7fe  ..F.......'.....
 0f60 83250500 03264500 03278500 8327c500  .%...&E..'...'..
 0f70 23a0b600 23a2c600 23a4e600 23a6f600  #...#...#...#...
 0f80 03280500 03274500 83274500 1308e8ff  .(...'E..'E.....
 0f90 13584840 13162800 b706f0ff 1307e7ff  .XH@..(.........
 0fa0 93872700 3306d600 9305f03f 63cae702  ..'.3......?c...
 0fb0 83270500 93168700 b306d600 9387e7ff  .'..............
 0fc0 93f7f700 93971700 b397f500 23a0f600  ............#...
 0fd0 83274500 13071700 93872700 e3dae7fc  .'E.......'.....
 0fe0 03260500 13062600 13564640 63020607  .&....&..VF@c...
 0ff0 83264500 83274500 9386e6ff 93872700  .&E..'E.......'.
 1000 63c6d704 b708f0ff 13085000 9305f03f  c.........P....?
 1010 83270500 13976600 3307c700 93872700  .'....f.3.....'.
 1020 93f7f700 b307f840 13172700 93971700  .......@..'.....
 1030 b3d7f540 3387e800 2320f700 83274500  ...@3...# ...'E.
 1040 93861600 93872700 e3d4d7fc 67800000  ......'.....g...
 1050 67800000 b707f0ff 3777f8ff 23a0a700  g.......7w..#...
 1060 93874700 e39ce7fe 67800000 b707f0ff  ..G.....g.......
 1070 b726f2ff 9387c700 b70500c0 13063000  .&............0.
 1080 9386c6b0 23a0b700 23aec708 13870700  ....#...#.......
 1090 93870710 e318d7fe 67800000 130101ff  ........g.......
 10a0 23249100 23222101 b704f0ff b7bfaaaa  #$..#"!.........
 10b0 37bfaa2a b70e0040 375e5555 37535515  7..*...@7^UU7SU.
 10c0 3729f1ff 23268100 93840411 13040500  7)..#&..........
 10d0 938f8faa 130fafaa 13083000 9302c0ff  ..........0.....
 10e0 938efeff 13051000 130e4e55 13035355  ..........NU..SU
 10f0 13090911 138684f9 93080000 9303f000  ................
 1100 93052000 930786f6 63840804 63827804  .. .....c...c.x.
 1110 93060400 6f00c001 630ca706 23a00700  ....o...c...#...
 1120 23a20700 93878700 93861600 6382c702  #...........c...
 1130 03c70600 6308b704 e31007ff 23a05700  ....c.......#.W.
 1140 23a2d701 93878700 93861600 e392c7fe  #...............
 1150 93881800 93070001 13060610 e394f8fa  ................
 1160 b7170000 b384f400 13043401 e39424f9  ..........4...$.
 1170 0324c100 83248100 03294100 13010101  .$...$...)A.....
 1180 67800000 23a0f701 23a2e701 6ff09ff9  g...#...#...o...
 1190 23a0c701 23a26700 6ff0dff8 63400506  #...#.g.o...c@..
 11a0 63c60506 13860500 93050500 1305f0ff  c...............
 11b0 630c0602 93061000 637ab600 6358c000  c.......cz..cX..
 11c0 13161600 93961600 e36ab6fe 13050000  .........j......
 11d0 63e6c500 b385c540 3365d500 93d61600  c......@3e......
 11e0 13561600 e39606fe 67800000 93820000  .V......g.......
 11f0 eff05ffb 13850500 67800200 3305a040  .._.....g...3..@
 1200 6348b000 b305b040 6ff0dff9 b305b040  cH.....@o......@
 1210 93820000 eff01ff9 3305a040 67800200  ........3..@g...
 1220 93820000 63ca0500 634c0500 eff09ff7  ....c...cL......
 1230 13850500 67800200 b305b040 e35805fe  ....g......@.X..
 1240 3305a040 eff01ff6 3305b040 67800200  3..@....3..@g...
 1250 130101ff 93050000 23248100 23261100  ........#$..#&..
 1260 13040500 ef004018 03a5c1fd 8327c503  ......@......'..
 1270 63840700 e7800700 13050400 ef00c038  c..............8
 1280 130101ff 23248100 23202101 93070000  ....#$..# !.....
 1290 13090000 3309f940 23261100 23229100  ....3..@#&..#"..
 12a0 13592940 63000902 13040000 93040000  .Y)@c...........
 12b0 83270400 93841400 13044400 e7800700  .'........D.....
 12c0 e31899fe 93070000 13090000 3309f940  ............3..@
 12d0 13592940 63000902 13040000 93040000  .Y)@c...........
 12e0 83270400 93841400 13044400 e7800700  .'........D.....
 12f0 e31899fe 8320c100 03248100 83244100  ..... ...$...$A.
 1300 03290100 13010101 67800000 1303f000  .)......g.......
 1310 13070500 637ec302 9377f700 6390070a  ....c~...w..c...
 1320 63920508 937606ff 1376f600 b386e600  c....v...v......
 1330 2320b700 2322b700 2324b700 2326b700  # ..#"..#$..#&..
 1340 13070701 e366d7fe 63140600 67800000  .....f..c...g...
 1350 b306c340 93962600 97020000 b3865600  ...@..&.......V.
 1360 6780c600 2307b700 a306b700 2306b700  g...#.......#...
 1370 a305b700 2305b700 a304b700 2304b700  ....#.......#...
 1380 a303b700 2303b700 a302b700 2302b700  ....#.......#...
 1390 a301b700 2301b700 a300b700 2300b700  ....#.......#...
 13a0 67800000 93f5f50f 93968500 b3e5d500  g...............
 13b0 93960501 b3e5d500 6ff0dff6 93962700  ........o.....'.
 13c0 97020000 b3865600 93820000 e78006fa  ......V.........
 13d0 93800200 938707ff 3307f740 3306f600  ........3..@3...
 13e0 e378c3f6 6ff0dff3 130101fd 232c4101  .x..o.......#,A.
 13f0 03aac1fd 23202103 23261102 03298a14  ....# !.#&...)..
 1400 23248102 23229102 232e3101 232a5101  #$..#"..#.1.#*Q.
 1410 23286101 23267101 23248101 63000904  #(a.#&q.#$..c...
 1420 130b0500 938b0500 930a1000 9309f0ff  ................
 1430 83244900 1384f4ff 63420402 93942400  .$I.....cB....$.
 1440 b3049900 63840b04 83a74410 63807705  ....c.....D.c.w.
 1450 1304f4ff 9384c4ff e31634ff 8320c102  ..........4.. ..
 1460 03248102 83244102 03290102 8329c101  .$...$A..)...)..
 1470 032a8101 832a4101 032b0101 832bc100  .*...*A..+...+..
 1480 032c8100 13010103 67800000 83274900  .,......g....'I.
 1490 83a64400 9387f7ff 638e8704 23a20400  ..D.....c...#...
 14a0 e38806fa 83278918 33978a00 032c4900  .....'..3....,I.
 14b0 b377f700 63920702 e7800600 03274900  .w..c........'I.
 14c0 83278a14 63148701 e38427f9 e38807f8  .'..c.....'.....
 14d0 13890700 6ff0dff5 8327c918 83a54408  ....o....'....D.
 14e0 3377f700 631c0700 13050b00 e7800600  3w..c...........
 14f0 6ff0dffc 23228900 6ff09ffa 13850500  o...#"..o.......
 1500 e7800600 6ff09ffb 93050500 93060000  ....o...........
 1510 13060000 13050000 6f008005 130101ff  ........o.......
 1520 23248100 13040000 93070000 b3878740  #$.............@
 1530 23229100 23261100 93d42740 63800402  #"..#&....'@c...
 1540 9387c7ff 33848700 83270400 9384f4ff  ....3....'......
 1550 1304c4ff e7800700 e39804fe 8320c100  ............. ..
 1560 03248100 83244100 13010101 67800000  .$...$A.....g...
 1570 03a7c1fd 83278714 638c0704 03a74700  .....'..c.....G.
 1580 1308f001 634ee806 13182700 63060502  ....cN....'.c...
 1590 33830701 2324c308 83a88718 13061000  3...#$..........
 15a0 3316e600 b3e8c800 23a41719 2324d310  3.......#...#$..
 15b0 93062000 6304d502 13071700 23a2e700  .. .c.......#...
 15c0 b3870701 23a4b700 13050000 67800000  ....#.......g...
 15d0 9307c714 2324f714 6ff05ffa 83a6c718  ....#$..o._.....
 15e0 13071700 23a2e700 33e6c600 23a6c718  ....#...3...#...
 15f0 b3870701 23a4b700 13050000 67800000  ....#.......g...
 1600 1305f0ff 67800000 9308d005 73000000  ....g.......s...
 1610 63440500 6f000000 130101ff 23248100  cD..o.......#$..
 1620 13040500 23261100 33048040 ef00c000  ....#&..3..@....
 1630 23208500 6f000000 03a501fc 67800000  # ..o.......g...
Contents of section .text.startup:
 1640 130101fb 23261104 23248104 23229104  ....#&..#$..#"..
 1650 23202105 232e3103 232c4103 232a5103  # !.#.1.#,A.#*Q.
 1660 23286103 23267103 23248103 23229103  #(a.#&q.#$..#"..
 1670 2320a103 232eb101 93021000 17f3ffff  # ..#...........
 1680 1303430f 73105330 73904230 138c41a0  ..C.s.S0s.B0..A.
 1690 eff08fa2 930a0c02 13850a00 eff01fa0  ................
 16a0 83a7c19c e38e07fe 93071000 23a4f19c  ............#...
 16b0 b7370000 938707a0 2324f100 b7470000  .7......#$...G..
 16c0 93870704 23a6019c 1384c19d 938b41a1  ....#.........A.
 16d0 930d4001 2326f100 83a7019c e38e07fe  ..@.#&..........
 16e0 9305b021 138541a0 efe05fa4 63160508  ...!..A..._.c...
 16f0 83a7819c 638a0700 83a7819d 83260400  ....c........&..
 1700 b387d700 2320f400 23ac019c 83260400  ....# ..#....&..
 1710 93077002 63cad700 83260400 93073000  ..p.c....&....0.
 1720 63c6d700 93074000 2320f400 03260400  c.....@.# ...&..
 1730 93860a00 93850b00 138541a0 efe05fca  ..........A..._.
 1740 130d0500 63140502 83a6419c b387a601  ....c.....A.....
 1750 23a2f19c eff08fa3 9307803e 13000000  #..........>....
 1760 9387f7ff e39c07fe 6ff01ff7 13850a00  ........o.......
 1770 eff0df92 6ff05ffd 83a7019c 9387f7ff  ....o._.........
 1780 23a0f19c 23a4019c 23a6019c 2320b401  #...#...#...# ..
 1790 93078020 2322f400 93070015 2320fc00  ... #"......# ..
 17a0 83278100 2324fc00 93072020 2322fc00  .'..#$....  #"..
 17b0 8327c100 2326fc00 93072000 2328fc00  .'..#&.... .#(..
 17c0 9307e0ff 232afc00 eff04f9c 83a7c19c  ....#*....O.....
 17d0 e38e07fe 93071000 23a4f19c 23a6019c  ........#...#...
 17e0 6ff01ff1 93070000 63880700 37150000  o.......c...7...
 17f0 1305c551 6ff05fd1 67800000           ...Qo._.g...    
Contents of section .data:
 1800 00000000 00000000 00000000 00000000  ................
 1810 00000000 00000000 00000000 00000000  ................
 1820 00000000 00000000 00000000 00000000  ................
 1830 00000000 00000000 00000000 00000000  ................
 1840 00000000 00000000 00000000 00000000  ................
 1850 00000000 00000000 00000000 00000000  ................
 1860 00000000 00000000 00000000 00000000  ................
 1870 00000000 00000000 00000000 00000000  ................
 1880 00000000 00000000 00000000 00000000  ................
 1890 00000000 00000000 00000000 00000000  ................
 18a0 00000000 00000000 00000000 00000000  ................
 18b0 00000000 00000000 00000000 00000000  ................
 18c0 00000000 00000000 00000000 00000000  ................
 18d0 00000000 00000000 00000000 00000000  ................
 18e0 00000000 00000000 00000000 00000000  ................
 18f0 00000000 00000000 00000000 00000000  ................
 1900 00000000 00000000 00000000 00000000  ................
 1910 00000000 00000000 00000000 00000000  ................
 1920 00000000 00000000 00000000 00000000  ................
 1930 00000000 00000000 00000000 00000000  ................
 1940 00000000 00000000 00000000 00000000  ................
 1950 00000000 00000000 00000000 00000000  ................
 1960 00000000 00000000 00000000 00000000  ................
 1970 00000000 00000000 00000000 00000000  ................
 1980 00000000 00000000 00000000 00000000  ................
 1990 00000000 00000000 00000000 00000000  ................
 19a0 00000000 00000000 00000000 00000000  ................
 19b0 00000000 00000000 00000000 00000000  ................
 19c0 00000000 00000000 00000000 00000000  ................
 19d0 00000000 bc1c0000 241d0000 8c1d0000  ........$.......
 19e0 00000000 00000000 00000000 00000000  ................
 19f0 00000000 00000000 00000000 00000000  ................
 1a00 00000000 00000000 00000000 00000000  ................
 1a10 00000000 00000000 00000000 00000000  ................
 1a20 00000000 00000000 00000000 00000000  ................
 1a30 00000000 00000000 00000000 00000000  ................
 1a40 00000000 00000000 00000000 00000000  ................
 1a50 00000000 00000000 00000000 00000000  ................
 1a60 00000000 00000000 00000000 00000000  ................
 1a70 00000000 00000000 01000000 00000000  ................
 1a80 0e33cdab 34126de6 ecde0500 0b000000  .3..4.m.........
 1a90 00000000 00000000 00000000 00000000  ................
 1aa0 00000000 00000000 00000000 00000000  ................
 1ab0 00000000 00000000 00000000 00000000  ................
 1ac0 00000000 00000000 00000000 00000000  ................
 1ad0 00000000 00000000 00000000 00000000  ................
 1ae0 00000000 00000000 00000000 00000000  ................
 1af0 00000000 00000000 00000000 00000000  ................
 1b00 00000000 00000000 00000000 00000000  ................
 1b10 00000000 00000000 00000000 00000000  ................
 1b20 00000000 00000000 00000000 00000000  ................
 1b30 00000000 00000000 00000000 00000000  ................
 1b40 00000000 00000000 00000000 00000000  ................
 1b50 00000000 00000000 00000000 00000000  ................
 1b60 00000000 00000000 00000000 00000000  ................
 1b70 00000000 00000000 00000000 00000000  ................
 1b80 00000000 00000000 00000000 00000000  ................
 1b90 00000000 00000000 00000000 00000000  ................
 1ba0 00000000 00000000 00000000 00000000  ................
 1bb0 00000000 00000000 00000000 00000000  ................
 1bc0 00000000 00000000 00000000 00000000  ................
 1bd0 00000000 00000000 00000000 00000000  ................
 1be0 00000000 00000000 00000000 00000000  ................
 1bf0 00000000 00000000 00000000 00000000  ................
 1c00 00000000 00000000 00000000 00000000  ................
 1c10 00000000 00000000 00000000 00000000  ................
 1c20 00000000 00000000 00000000 00000000  ................
 1c30 00000000 00000000 00000000 00000000  ................
 1c40 00000000 00000000 00000000 00000000  ................
 1c50 00000000 00000000 00000000 00000000  ................
 1c60 00000000 00000000 00000000 00000000  ................
 1c70 00000000 00000000 00000000 00000000  ................
 1c80 00000000 00000000 00000000 00000000  ................
 1c90 00000000 00000000 00000000 00000000  ................
 1ca0 00000000 00000000 00000000 00000000  ................
 1cb0 00000000 00000000 00000000 00000000  ................
 1cc0 00000000 00000000 00000000 00000000  ................
 1cd0 00000000 00000000 00000000 00000000  ................
 1ce0 00000000 00000000 00000000 00000000  ................
 1cf0 00000000 00000000 00000000 00000000  ................
 1d00 00000000 00000000 00000000 00000000  ................
 1d10 00000000 00000000 00000000 00000000  ................
 1d20 00000000 00000000 00000000 00000000  ................
 1d30 00000000 00000000 00000000 00000000  ................
 1d40 00000000 00000000 00000000 00000000  ................
 1d50 00000000 00000000 00000000 00000000  ................
 1d60 00000000 00000000 00000000 00000000  ................
 1d70 00000000 00000000 00000000 00000000  ................
 1d80 00000000 00000000 00000000 00000000  ................
 1d90 00000000 00000000 00000000 00000000  ................
 1da0 00000000 00000000 00000000 00000000  ................
 1db0 00000000 00000000 00000000 00000000  ................
 1dc0 00000000 00000000 00000000 00000000  ................
 1dd0 00000000 00000000 00000000 00000000  ................
 1de0 00000000 00000000 00000000 00000000  ................
 1df0 00000000 00000000 00000000 aaaaaaaa  ................
 1e00 d0190000 00000c11 ffffffff 00000811  ................
 1e10 00000411 00000011 0000f0ff d0190000  ................
 1e20 00000000 00000000 00000000 00000000  ................
 1e30 00000002 02020002 02020002 02020002  ................
 1e40 02020002 02020100 03030000 03030300  ................
 1e50 03030300 00030300 01000000 00000000  ................
 1e60 00000000 00000000 00000000 01010303  ................
 1e70 01000303 03010303 03000103 03010100  ................
 1e80 00000000 00000000 00000000 00000000  ................
 1e90 00000000 02020000 02020200 02020200  ................
 1ea0 00020200 00000002 02000000 02020002  ................
 1eb0 02000000 02020000 00000000 00000000  ................
 1ec0 00000000 00000000 00000002 02020200  ................
 1ed0 00020202 00020202 00000202 02020000  ................
 1ee0 00000000 00000000 00000000 00000000  ................
 1ef0 00010000 02000002 02020002 02020000  ................
 1f00 02000001 00000000 00000000 00000000  ................
 1f10 00000000 00000001 03030200 00020202  ................
 1f20 00020202 03030201 01010000 00000000  ................
 1f30 00000000 00000000 00000000 00000000  ................
 1f40 00000000 00000000 00000000 00000000  ................
 1f50 00000000 00000000 00000000 00000000  ................
 1f60 00000000 00000000 00000000 00000000  ................
 1f70 00000000 00000000 3f0c3f3f 333f3f3f  ........?.??3???
 1f80 3f3f330c 30303303 03303333 330c3f3f  ??3.003..0333.??
 1f90 3f3f3f30 3f3f330c 03303030 33303330  ???0??3..0003030
 1fa0 3f0c3f3f 303f3f30 3f300000 ff3cffff  ?.??0??0?0...<..
 1fb0 c3ffffff ffffc330 c0c0c303 03c0c3c3  .......0........
 1fc0 c330c0c0 c30303c0 c3c3c330 ffffffff  .0.........0....
 1fd0 ffc0ffff c33003c0 c0c0c3c0 c3c0c330  .....0.........0
 1fe0 03c0c0c0 c3c0c3c0 ff30ffff c0ffffc0  .........0......
 1ff0 ffff0000 fc3f0000 000c0000 fc3f0000  .....?.......?..
 2000 fc3f0000 003c0000 ffff0000 fc3f0000  .?...<.......?..
 2010 ffff0000 fc3f0000 fc3f0000 ffff0000  .....?...?......
 2020 000f0000 ffff0000 ffff0000 003c0000  .............<..
 2030 ffff0000 ffff0000 ffff0000 ffff0000  ................
 2040 ffff0000 3ffc0000 c00f0000 3ffc0000  ....?.......?...
 2050 3ffc0000 003f0000 3f000000 3ffc0000  ?....?..?...?...
 2060 00fc0000 3ffc0000 3ffc0000 3ffc0000  ....?...?...?...
 2070 f00f0000 3ffc0000 3ffc0000 003f0000  ....?...?....?..
 2080 3f000000 3ffc0000 00fc0000 3ffc0000  ?...?.......?...
 2090 3ffc0000 3ffc0000 c00f0000 3ffc0000  ?...?.......?...
 20a0 3ffc0000 c03f0000 3f000000 3ffc0000  ?....?..?...?...
 20b0 003f0000 3ffc0000 3ffc0000 3ffc0000  .?..?...?...?...
 20c0 c00f0000 00fc0000 00fc0000 c03f0000  .............?..
 20d0 ff3f0000 3f000000 003f0000 3ffc0000  .?..?....?..?...
 20e0 3ffc0000 3ffc0000 c00f0000 003f0000  ?...?........?..
 20f0 c0ff0000 f03f0000 ffff0000 ff3f0000  .....?.......?..
 2100 c00f0000 ffff0000 3ffc0000 3ffc0000  ........?...?...
 2110 c00f0000 c00f0000 c03f0000 f03f0000  .........?...?..
 2120 00fc0000 ffff0000 c00f0000 fc3f0000  .............?..
 2130 ffff0000 3ffc0000 c00f0000 f0030000  ....?...........
 2140 00fc0000 3c3f0000 00fc0000 3ffc0000  ....<?......?...
 2150 f0030000 3ffc0000 fcff0000 3ffc0000  ....?.......?...
 2160 c00f0000 fc000000 00fc0000 3c3f0000  ............<?..
 2170 3ffc0000 3ffc0000 f0030000 3ffc0000  ?...?.......?...
 2180 00fc0000 3ffc0000 c00f0000 3f000000  ....?.......?...
 2190 3ffc0000 ffff0000 3ffc0000 3ffc0000  ?.......?...?...
 21a0 f0030000 3ffc0000 00fc0000 3ffc0000  ....?.......?...
 21b0 c00f0000 3ffc0000 3ffc0000 ffff0000  ....?...?.......
 21c0 3ffc0000 3ffc0000 f0030000 3ffc0000  ?...?.......?...
 21d0 3ffc0000 3ffc0000 c00f0000 3ffc0000  ?...?.......?...
 21e0 3ffc0000 003f0000 3ffc0000 3ffc0000  ?....?..?...?...
 21f0 f0030000 3ffc0000 3ffc0000 3ffc0000  ....?...?...?...
 2200 c00f0000 3ffc0000 3ffc0000 003f0000  ....?...?....?..
 2210 3ffc0000 3ffc0000 f0030000 3ffc0000  ?...?.......?...
 2220 3ffc0000 ffff0000 c00f0000 ffff0000  ?...............
 2230 ffff0000 003f0000 ffff0000 ffff0000  .....?..........
 2240 f0030000 ffff0000 ffff0000 fc3f0000  .............?..
 2250 c00f0000 ffff0000 fc3f0000 003f0000  .........?...?..
 2260 fc3f0000 fc3f0000 f0030000 fc3f0000  .?...?.......?..
 2270 fc3f0000                             .?..            
Contents of section .eh_frame:
 2274 00000000                             ....            
Contents of section .fini_array:
 2278 5c000000                             \...            
Contents of section .init_array:
 227c a4000000                             ....            
Contents of section .init_array.00000:
 2280 e4170000                             ....            
Contents of section .riscv.attributes:
 0000 411f0000 00726973 63760001 15000000  A....riscv......
 0010 04100572 76333269 32703000 08010a0b  ...rv32i2p0.....
Contents of section .comment:
 0000 4743433a 2028474e 55292031 302e322e  GCC: (GNU) 10.2.
 0010 3000                                 0.              
Contents of section .debug_line:
 0000 41000000 03002100 00000101 fb0e0d00  A.....!.........
 0010 01010101 00000001 00000173 72630000  ...........src..
 0020 696e6974 2e730001 00000000 05020000  init.s..........
 0030 00001903 02090800 01030509 04000109  ................
 0040 04000001 01000e00 00030030 00000001  ...........0....
 0050 01fb0e0d 00010101 01000000 01000001  ................
 0060 73726300 00706879 73696373 2e630001  src..physics.c..
 0070 00007665 63746f72 2e680001 00000005  ..vector.h......
 0080 6c000502 c0000000 030f0105 0d060301  l...............
 0090 09000001 051c0300 09040001 05020603  ................
 00a0 00090400 01050506 03000900 0001052b  ...............+
 00b0 00020401 03000904 00010520 00020401  ........... ....
 00c0 03000904 00010503 06030309 04000105  ................
 00d0 1a060300 09000001 05110300 09040001  ................
 00e0 050f0300 09040001 05020603 02090400  ................
 00f0 01050d06 03000900 00010505 03000904  ................
 0100 00010521 03000908 00010516 03000904  ...!............
 0110 00010501 03040904 00010509 06037909  ..............y.
 0120 04000105 14060300 09000001 05230300  .............#..
 0130 09040001 050c0300 09040001 05320002  .............2..
 0140 04010300 09040001 05270002 04010300  .........'......
 0150 09040001 05030603 01090400 01051a06  ................
 0160 03000900 00010511 03000904 0001050f  ................
 0170 03000904 00010503 06030409 08000105  ................
 0180 1a060300 09000001 05110300 09040001  ................
 0190 050f0300 09040001 05010302 09040001  ................
 01a0 05430603 01090400 01050203 01090000  .C..............
 01b0 01051106 03000900 00010515 03000904  ................
 01c0 00010501 03010904 00010562 06030209  ...........b....
 01d0 08000105 0d060301 09000001 05050300  ................
 01e0 09040001 05020603 00090400 01050506  ................
 01f0 03000900 0001052b 00020401 03000904  .......+........
 0200 00010521 00020401 03000904 00010503  ...!............
 0210 06030109 08000105 07060300 09000001  ................
 0220 05060300 09080001 052d0002 04010300  .........-......
 0230 09040001 05440002 04010300 09040001  .....D..........
 0240 052d0002 04010300 09040001 052a0002  .-...........*..
 0250 04010300 09040001 05690002 04020300  .........i......
 0260 09040001 055e0002 04020300 09040001  .....^..........
 0270 05040603 01090400 01051b06 03000900  ................
 0280 00010507 03020904 00010512 037e0904  .............~..
 0290 00010510 03000904 00010504 06030109  ................
 02a0 04000105 14060300 09000001 05100300  ................
 02b0 09040001 05140300 09040001 052b0300  .............+..
 02c0 09040001 05370300 09040001 05100300  .....7..........
 02d0 09040001 05040603 01090800 01051006  ................
 02e0 03000900 00010507 03000904 00010519  ................
 02f0 00020401 06030009 04000105 25000204  ............%...
 0300 01060300 09000001 05090603 01090800  ................
 0310 01051506 03000900 0001050c 03000904  ................
 0320 0001051f 06030009 08000105 2b060300  ............+...
 0330 09000001 05010303 09040001 057c0603  .............|..
 0340 01090400 01050203 02090000 01051106  ................
 0350 03000900 00010502 06030109 04000105  ................
 0360 11060300 09000001 057c037d 09040001  .........|.}....
 0370 050e0304 09040001 0511037f 09040001  ................
 0380 05280300 09040001 05060300 09040001  .(..............
 0390 05020603 01090c00 01050506 03000900  ................
 03a0 00010502 06030709 04000105 0d060300  ................
 03b0 09000001 05020603 01090400 01050e06  ................
 03c0 03000900 00010505 03000904 00010516  ................
 03d0 00020401 03000904 00010502 06030709  ................
 03e0 08000105 14060300 09000001 050d0301  ................
 03f0 09040001 050e0302 09040001 050a037d  ...............}
 0400 09040001 05020603 01091000 01030209  ................
 0410 00000105 05060300 09000001 05020603  ................
 0420 07090400 01050d06 03000900 00010502  ................
 0430 06030109 04000105 0e060300 09000001  ................
 0440 05090306 09040001 0505037a 09040001  ...........z....
 0450 05190002 04010300 09040001 05160002  ................
 0460 04010300 09040001 05190002 04010300  ................
 0470 09040001 05160002 04010300 09040001  ................
 0480 05010307 09040001 05310002 04020367  .........1.....g
 0490 09040001 05260002 0404037f 090c0001  .....&..........
 04a0 050a0002 04040300 09040001 05640002  .............d..
 04b0 04040301 09100001 056d0002 04040300  .........m......
 04c0 09140001 055b0002 04040300 09080001  .....[..........
 04d0 05030603 02090400 01051b06 03000900  ................
 04e0 00010503 06030109 08000105 1a060300  ................
 04f0 09000001 050a0301 09040001 0511037f  ................
 0500 09040001 050f0300 09040001 05030603  ................
 0510 01090400 01050a06 03000900 00010519  ................
 0520 00020401 03060904 00010516 00020401  ................
 0530 03000904 00010519 00020401 03000904  ................
 0540 00010516 00020401 03000904 00010539  ...............9
 0550 00020402 03000904 0001050d 00020403  ................
 0560 037e0908 00010554 00020403 03020904  .~.....T........
 0570 00010587 01000204 05030009 0c000105  ................
 0580 24000204 05037e09 04000105 87010002  $.....~.........
 0590 04050302 09040001 050a0002 0405037e  ...............~
 05a0 09040001 05870100 02040503 02090400  ................
 05b0 01050a00 02040503 7e090400 01058701  ........~.......
 05c0 00020405 03020904 0001050a 00020405  ................
 05d0 037e0904 00010587 01000204 05030209  .~..............
 05e0 04000105 90010002 04050300 09040001  ................
 05f0 057e0002 04050300 09080001 05030603  .~..............
 0600 02090400 01051b06 03000900 00010503  ................
 0610 06030109 08000105 1a060300 09000001  ................
 0620 05110300 09040001 050f0300 09040001  ................
 0630 05030603 01090400 01050a06 03000900  ................
 0640 00010526 00020402 036a0904 00010541  ...&.....j.....A
 0650 00020403 0300090c 0001052a 00020405  ...........*....
 0660 037e090c 00010506 00020405 03000904  .~..............
 0670 00010574 00020405 03020910 0001057d  ...t...........}
 0680 00020405 03000914 0001056b 00020405  ...........k....
 0690 03000908 00010503 06030209 04000105  ................
 06a0 1b060300 09000001 05030603 01090800  ................
 06b0 01051a06 03000900 0001050a 03010904  ................
 06c0 00010511 037f0904 0001050f 03000904  ................
 06d0 00010503 06030109 04000105 0a060300  ................
 06e0 09000001 053a0002 04020316 09040001  .....:..........
 06f0 050d0002 0403037f 09080001 05550002  .............U..
 0700 04030301 09040001 05880100 02040503  ................
 0710 00090c00 01052400 02040503 7f090400  ......$.........
 0720 01058801 00020405 03010904 0001050a  ................
 0730 00020405 037f0908 00010588 01000204  ................
 0740 05030109 04000105 0a000204 05037f09  ................
 0750 04000105 88010002 04050301 09080001  ................
 0760 05910100 02040503 00090400 01057f00  ................
 0770 02040503 00090800 01050306 03020904  ................
 0780 0001051b 06030009 00000105 03060301  ................
 0790 09080001 051a0603 00090000 01050a03  ................
 07a0 01090400 01051103 7f090400 01050f03  ................
 07b0 00090400 01050306 03010904 00010501  ................
 07c0 06030309 00000105 7c060302 09040001  ........|.......
 07d0 06030009 00000105 0d035009 04000105  ..........P.....
 07e0 05030009 04000105 02060331 09040001  ...........1....
 07f0 034f0900 00010505 06030009 00000105  .O..............
 0800 2b030009 04000105 21030009 04000105  +.......!.......
 0810 02060332 09080001 03bf7f09 00000105  ...2............
 0820 0d060300 09000001 05050300 09040001  ................
 0830 052b0300 09080001 05200300 09040001  .+....... ......
 0840 05030603 03090400 01051a06 03000900  ................
 0850 00010511 03000904 0001050f 03000904  ................
 0860 00010502 06030209 04000105 0d060300  ................
 0870 09000001 05050300 09040001 05210300  .............!..
 0880 09080001 05160300 09040001 05020603  ................
 0890 3d090400 01035809 00000105 11060300  =.....X.........
 08a0 09000001 05020603 01090400 01051106  ................
 08b0 03000900 0001050e 03010904 00010511  ................
 08c0 037f0904 00010528 03000904 00010506  .......(........
 08d0 03000904 00010502 06030109 0c000105  ................
 08e0 05060300 09000001 05020603 07090400  ................
 08f0 01050d06 03000900 00010502 06030109  ................
 0900 04000105 0e060300 09000001 05050300  ................
 0910 09040001 05160300 09040001 05020603  ................
 0920 07090800 01051406 03000900 0001050d  ................
 0930 03010904 0001050e 03020904 0001050a  ................
 0940 037d0904 00010502 06030109 10000103  .}..............
 0950 02090000 01050506 03000900 00010502  ................
 0960 06030709 04000105 0d060300 09000001  ................
 0970 05020603 01090400 01050e06 03000900  ................
 0980 00010509 03060904 00010505 037a0904  .............z..
 0990 00010519 03000904 00010516 03000904  ................
 09a0 00010519 03000904 00010516 03000904  ................
 09b0 00010502 06030d09 04000105 19060300  ................
 09c0 09000001 050e0300 09040001 05020603  ................
 09d0 01090c00 01050e06 03000900 00010517  ................
 09e0 03000904 00010509 03000904 00010502  ................
 09f0 06030109 04000105 19060300 09000001  ................
 0a00 050e0300 09040001 05020603 01090c00  ................
 0a10 01050e06 03000900 00010517 03000904  ................
 0a20 00010509 03000904 00010502 06030209  ................
 0a30 04000105 01060301 09000001 05090603  ................
 0a40 b97f0904 00010514 06030009 00000105  ................
 0a50 0c030009 04000105 32030009 08000105  ........2.......
 0a60 27030009 04000105 03060301 09040001  '...............
 0a70 051a0603 00090000 01051103 00090400  ................
 0a80 01050f03 00090400 01053103 21090800  ..........1.!...
 0a90 01052603 7f090c00 01050a03 00090400  ..&.............
 0aa0 01056403 01091000 01056d03 00091400  ..d.......m.....
 0ab0 01055b03 00090800 01050306 03020904  ..[.............
 0ac0 0001051b 06030009 00000105 03060301  ................
 0ad0 09080001 051a0603 00090000 01050a03  ................
 0ae0 01090400 01051103 7f090400 01050f03  ................
 0af0 00090400 01050306 03010904 0001050a  ................
 0b00 06030009 00000105 03060368 09040001  ...........h....
 0b10 05070603 00090000 01050603 00090800  ................
 0b20 01052d03 00090400 01054403 00090400  ..-.......D.....
 0b30 01052d03 00090400 01052a03 00090400  ..-.......*.....
 0b40 01056903 00090400 01055e03 00090400  ..i.......^.....
 0b50 01050406 03010904 0001051b 06030009  ................
 0b60 00000105 07030209 04000105 12037e09  ..............~.
 0b70 04000105 10030009 04000105 04060301  ................
 0b80 09040001 05140603 00090000 01051003  ................
 0b90 00090400 01051403 00090400 01052b03  ..............+.
 0ba0 00090400 01053703 00090400 01051003  ......7.........
 0bb0 00090400 01050406 03010908 00010510  ................
 0bc0 06030009 00000105 07030009 04000105  ................
 0bd0 19060300 09040001 05250603 00090000  .........%......
 0be0 01050306 03740908 0001051a 06030009  .....t..........
 0bf0 00000105 11030009 04000105 0f030009  ................
 0c00 04000105 19032709 08000105 16030009  ......'.........
 0c10 04000105 19030009 04000105 16030009  ................
 0c20 04000105 39030009 04000105 0d037e09  ....9.........~.
 0c30 08000105 54030209 04000105 87010300  ....T...........
 0c40 090c0001 0524037e 09040001 05870103  .....$.~........
 0c50 02090400 01050a03 7e090400 01058701  ........~.......
 0c60 03020904 0001050a 037e0904 00010587  .........~......
 0c70 01030209 04000105 0a037e09 08000105  ..........~.....
 0c80 90010302 09040001 057e0300 09080001  .........~......
 0c90 05030603 02090400 01051b06 03000900  ................
 0ca0 00010503 06030109 08000105 1a060300  ................
 0cb0 09000001 05110300 09040001 050f0300  ................
 0cc0 09040001 05030603 01090400 01050a06  ................
 0cd0 03000900 00010526 036a0904 00010541  .......&.j.....A
 0ce0 0300090c 0001052a 037e090c 00010506  .......*.~......
 0cf0 03000904 00010574 03020910 0001057d  .......t.......}
 0d00 03000914 0001056b 03000908 00010503  .......k........
 0d10 06030209 04000105 1b060300 09000001  ................
 0d20 05030603 01090800 01051a06 03000900  ................
 0d30 0001050a 03010904 00010511 037f0904  ................
 0d40 0001050f 03000904 00010503 06030109  ................
 0d50 04000105 0a060300 09000001 053a0316  .............:..
 0d60 09040001 050d037f 09080001 05550301  .............U..
 0d70 09040001 05880103 00090c00 01052403  ..............$.
 0d80 7f090400 01058801 03010904 0001050a  ................
 0d90 037f0904 00010588 01030109 04000105  ................
 0da0 0a037f09 08000105 88010301 09040001  ................
 0db0 050a037f 09040001 05910103 01090400  ................
 0dc0 01057f03 00090800 01050306 03020904  ................
 0dd0 0001051b 06030009 00000105 03060301  ................
 0de0 09080001 051a0603 00090000 01050a03  ................
 0df0 01090400 01051103 7f090400 01050f03  ................
 0e00 00090400 01050306 03010904 0001050a  ................
 0e10 06030009 00000105 0906035a 09040001  ...........Z....
 0e20 05150603 00090000 01050c03 00090400  ................
 0e30 01051f06 03000908 0001052b 06030009  ...........+....
 0e40 00000109 08000001 01150900 00030048  ...............H
 0e50 00000001 01fb0e0d 00010101 01000000  ................
 0e60 01000001 73726300 006d6169 6e2e6300  ....src..main.c.
 0e70 01000076 6563746f 722e6800 01000070  ...vector.h....p
 0e80 68797369 63732e68 00010000 67726170  hysics.h....grap
 0e90 68696373 2e680001 00000005 16000502  hics.h..........
 0ea0 24070000 033e0105 02030109 00000105  $....>..........
 0eb0 06060300 09000001 05050300 09040001  ................
 0ec0 05020603 01090800 01050c06 03000900  ................
 0ed0 00010502 06030109 04000105 10060300  ................
 0ee0 09000001 05050300 09040001 05090603  ................
 0ef0 03090800 01051706 03000900 0001050c  ................
 0f00 03000904 00010503 06030209 08000105  ................
 0f10 10060300 09000001 05010302 09080001  ................
 0f20 05130002 04010603 77090400 01052000  ........w..... .
 0f30 02040106 03000900 00010502 00020401  ................
 0f40 03000904 00010520 00020401 03000904  ....... ........
 0f50 00010501 06030e09 10000105 02030109  ................
 0f60 00000105 0106037f 09000001 05060301  ................
 0f70 09080001 0501037f 09040001 05060301  ................
 0f80 09040001 05020603 01090400 01050106  ................
 0f90 037e0900 0001051d 03020908 00010501  .~..............
 0fa0 037e0904 00010502 03030904 00010506  .~..............
 0fb0 037f0904 00010502 06030109 04000103  ................
 0fc0 14091000 01050b06 03000900 00010502  ................
 0fd0 06030109 04000105 0e060300 09000001  ................
 0fe0 05050300 09040001 05130002 04010603  ................
 0ff0 00090400 01051b00 02040106 03000900  ................
 1000 00010502 06030109 08000105 16060300  ................
 1010 09000001 05280300 09040001 050b0002  .....(..........
 1020 04040300 09100001 05010002 04040303  ................
 1030 09040001 05040603 71091c00 01051106  ........q.......
 1040 03000900 00010507 03000904 00010505  ................
 1050 06030109 04000105 0d060300 09000001  ................
 1060 05040603 78090800 01051106 03000900  ....x...........
 1070 00010507 03000904 0001050b 06030209  ................
 1080 04000105 18060300 09000001 050e0300  ................
 1090 09040001 052b0002 04010300 09080001  .....+..........
 10a0 05200002 04010300 09040001 05050603  . ..............
 10b0 01090800 01050e06 03000900 00010504  ................
 10c0 06030909 10000105 11060300 09000001  ................
 10d0 05070300 09040001 05050603 01090400  ................
 10e0 01050d06 03000900 00010524 00020401  ...........$....
 10f0 03730908 00010519 00020401 03000904  .s..............
 1100 00010505 06030109 04000105 0e060300  ................
 1110 09000001 05130603 17091000 01050203  ................
 1120 01090000 01050e06 03000900 00010502  ................
 1130 06030109 04000105 0a060300 09000001  ................
 1140 05020603 02090400 01050f06 03000900  ................
 1150 00010502 06030109 0c000105 0f060300  ................
 1160 09000001 05020603 01090800 01050d06  ................
 1170 03000900 00010502 06030109 0c000105  ................
 1180 12060300 09000001 05020603 01090c00  ................
 1190 01050d06 03000900 00010502 06030109  ................
 11a0 08000105 12060300 09000001 05020603  ................
 11b0 01090c00 01051206 03000900 00010502  ................
 11c0 06030109 08000105 12060300 09000001  ................
 11d0 05010301 09080001 05130603 02090400  ................
 11e0 01050203 01090000 01051306 037f0900  ................
 11f0 00010502 03010904 00010513 037f0904  ................
 1200 00010502 03010908 00010603 01090400  ................
 1210 01030109 4c000103 01090400 01050806  ....L...........
 1220 03000900 00010502 06030109 04000105  ................
 1230 08060300 09000001 05020603 01090800  ................
 1240 01036d09 00000105 0e060300 09000001  ..m.............
 1250 05020603 01090400 01050a06 03000900  ................
 1260 00010502 06030209 04000105 0f060300  ................
 1270 09000001 05020603 01090c00 01050f06  ................
 1280 03000900 00010502 06030109 08000105  ................
 1290 0d060300 09000001 05020603 01090800  ................
 12a0 01051206 03000900 00010502 06030109  ................
 12b0 0c000105 0d060300 09000001 05020603  ................
 12c0 01090800 01051206 03000900 00010502  ................
 12d0 06030109 0c000105 12060300 09000001  ................
 12e0 05020603 01090800 01051206 03000900  ................
 12f0 00010501 030a0904 00010512 03760904  .............v..
 1300 00010501 030a0904 00010518 06030209  ................
 1310 0c000105 02030209 00000105 1806037e  ...............~
 1320 090c0001 05020302 09040001 0518037e  ...............~
 1330 09180001 05020302 09140001 06030209  ................
 1340 08000105 13060300 09000001 05240300  .............$..
 1350 09040001 05410300 09080001 05020603  .....A..........
 1360 02090400 01052406 037e0900 0001052a  ......$..~.....*
 1370 03000904 00010541 0300090c 00010548  .......A.......H
 1380 0300090c 00010502 03020908 0001054e  ...............N
 1390 037e0900 00010502 03020904 00010513  .~..............
 13a0 037e0904 00010530 03000908 00010506  .~.....0........
 13b0 03000904 00010513 03000904 00010502  ................
 13c0 03020904 00010603 01091400 01030109  ................
 13d0 14000105 01060301 09000001 0502037f  ................
 13e0 09040001 05010301 09080001 0502037f  ................
 13f0 09100001 05010301 09040001 0502037f  ................
 1400 09040001 09040000 0101050c 00050240  ...............@
 1410 16000003 8d010105 02030209 00000105  ................
 1420 0c06037e 09000001 05020302 09380001  ...~.........8..
 1430 06030109 14000106 03010900 0001037f  ................
 1440 09040001 06030109 04000103 01090c00  ................
 1450 01051200 02040103 00090000 01050800  ................
 1460 02040103 00090000 01050900 02040106  ................
 1470 03000900 00010508 00020401 03000904  ................
 1480 00010502 06030109 04000105 0e060300  ................
 1490 09000001 05020603 01090800 01051206  ................
 14a0 035e0900 00010302 090c0001 050a0320  .^............. 
 14b0 09080001 050f035b 090c0001 05120305  .......[........
 14c0 09040001 05090603 24090400 01050a06  ........$.......
 14d0 03000900 00010509 03000904 00010504  ................
 14e0 06030209 04000105 08060300 09000001  ................
 14f0 05070300 090c0001 05040603 09090400  ................
 1500 01050203 9c7f0900 00010506 06030009  ................
 1510 00000105 05030009 04000105 13060300  ................
 1520 09040001 05020603 00090000 01052003  .............. .
 1530 00090400 01050206 0301090c 0001050c  ................
 1540 06030009 00000105 02060301 09040001  ................
 1550 05100603 00090000 01050503 00090400  ................
 1560 01050906 03030908 00010517 06030009  ................
 1570 00000105 0c030009 04000105 03060302  ................
 1580 09080001 05100603 00090000 01050406  ................
 1590 03de0009 08000105 11060300 09000001  ................
 15a0 05040603 01091800 01050706 03000900  ................
 15b0 00010504 06030109 04000105 0a060300  ................
 15c0 09000001 05040603 02090c00 01030109  ................
 15d0 04000105 09030009 00000105 14030009  ................
 15e0 00000105 0406037f 09000001 05050002  ................
 15f0 04030603 03090400 01051e00 02040303  ................
 1600 7e090400 01051400 02040303 00090000  ~...............
 1610 01050400 02040306 03000900 00010510  ................
 1620 00020401 06037c09 0c000105 05037609  ......|.......v.
 1630 0c000105 0b060300 09000001 05050603  ................
 1640 01090c00 01050203 50090000 01050e06  ........P.......
 1650 03000900 00010502 06030109 04000105  ................
 1660 0a060300 09000001 05020603 02090400  ................
 1670 01050f06 03000900 00010502 06030109  ................
 1680 04000105 0f060300 09000001 05020603  ................
 1690 01090800 01050d06 03000900 00010502  ................
 16a0 06030109 08000105 12060300 09000001  ................
 16b0 05020603 01090800 01050d06 03000900  ................
 16c0 00010502 06030109 08000105 12060300  ................
 16d0 09000001 05020603 01090800 01051206  ................
 16e0 03000900 00010502 06030109 08000105  ................
 16f0 12060300 09000001 05050603 27090800  ............'...
 1700 01030109 04000105 15000204 01030009  ................
 1710 00000105 0b000204 01030009 00000105  ................
 1720 0c000204 01060300 09000001 050b0002  ................
 1730 04010300 09040001 05050603 01090400  ................
 1740 01051106 03000900 00010505 06030109  ................
 1750 08000105 0d060300 09000001 09080000  ................
 1760 0101c717 00000300 31000000 0101fb0e  ........1.......
 1770 0d000101 01010000 00010000 01737263  .............src
 1780 00006772 61706869 63732e63 00010000  ..graphics.c....
 1790 76656374 6f722e68 00010000 00052e00  vector.h........
 17a0 0502700a 0000031a 01051e06 030c0900  ..p.............
 17b0 00010513 03790904 00010302 09040001  .....y..........
 17c0 05090304 09040001 052e0375 09040001  ...........u....
 17d0 051e030c 09040001 05090379 09040001  ...........y....
 17e0 03020904 00010513 03020904 0001052e  ................
 17f0 03770904 0001051d 03060908 0001051e  .w..............
 1800 03020904 0001050e 03040904 00010509  ................
 1810 037d090c 0001052e 03770904 0001051e  .}.......w......
 1820 030a0914 0001050e 03020904 0001037a  ...............z
 1830 09040001 03060908 0001037a 09040001  ...........z....
 1840 03020904 0001052e 0378090c 0001050e  .........x......
 1850 03080904 0001037e 09040001 03040904  .......~........
 1860 0001052e 0376090c 0001050e 030a0904  .....v..........
 1870 0001037c 09040001 05330306 09040001  ...|.....3......
 1880 050e037c 090c0001 050b0304 09040001  ...|............
 1890 05330300 09040001 050b0300 09040001  .3..............
 18a0 0533037c 09040001 050b0304 09040001  .3.|............
 18b0 0533037c 09040001 050e0302 09080001  .3.|............
 18c0 050b0302 09040001 05160301 09040001  ................
 18d0 050b037f 09040001 0533037c 09080001  .........3.|....
 18e0 03020904 0001050b 03020908 00010533  ...............3
 18f0 037e0904 00010522 03030904 00010533  .~.....".......3
 1900 037f0908 00010502 06037509 04000103  ..........u.....
 1910 02090000 01050603 00090000 01051a03  ................
 1920 00090000 01050303 01090000 01030109  ................
 1930 00000103 01090000 01030109 00000103  ................
 1940 01090000 01030109 00000103 01090000  ................
 1950 01030109 00000103 01090000 01030109  ................
 1960 00000105 0b06037f 09000001 0533037e  .............3.~
 1970 09040001 050b0302 09040001 0533037c  .............3.|
 1980 09100001 050b0304 09040001 05220301  ............."..
 1990 09040001 05030603 01090400 01052a03  ..............*.
 19a0 75090000 01051a03 00090000 01050303  u...............
 19b0 01090000 01030109 00000103 01090000  ................
 19c0 01030109 00000103 01090000 01030109  ................
 19d0 00000103 01090000 01030109 00000103  ................
 19e0 01090000 01030109 00000105 22060300  ............"...
 19f0 09000001 05030603 01090400 01052a03  ..............*.
 1a00 75090000 01051a03 00090000 01050303  u...............
 1a10 01090000 01030109 00000103 01090000  ................
 1a20 01030109 00000103 01090000 01030109  ................
 1a30 00000103 01090000 01030109 00000103  ................
 1a40 01090000 01030109 00000105 22060300  ............"...
 1a50 09000001 05030603 01090400 01052a03  ..............*.
 1a60 75090000 01051a03 00090000 01050303  u...............
 1a70 01090000 01030109 00000103 01090000  ................
 1a80 01030109 00000103 01090000 01030109  ................
 1a90 00000103 01090000 01030109 00000103  ................
 1aa0 01090000 01030109 00000105 22060300  ............"...
 1ab0 09000001 05030603 01090400 01052a03  ..............*.
 1ac0 75090000 01051a03 00090000 01050303  u...............
 1ad0 01090000 01030109 00000103 01090000  ................
 1ae0 01030109 00000103 01090000 01030109  ................
 1af0 00000103 01090000 01030109 00000103  ................
 1b00 01090000 01030109 00000105 0b06037f  ................
 1b10 09000001 05010304 09040001 0533037a  .............3.z
 1b20 09040001 050b0302 09040001 05220301  ............."..
 1b30 09040001 05030603 01090400 01052a03  ..............*.
 1b40 75090000 01051a03 00090000 01050106  u...............
 1b50 030d0900 0001053b 06030109 28000105  .......;....(...
 1b60 1c06030a 09000001 0513037b 09040001  ...........{....
 1b70 03020904 00010509 03020904 0001053b  ...............;
 1b80 03770904 0001051c 030a0904 00010509  .w..............
 1b90 037d0904 0001037e 09040001 053b037b  .}.....~.....;.{
 1ba0 09040001 051c0308 09040001 050e0302  ................
 1bb0 09040001 051b037c 09040001 053b037a  .......|.....;.z
 1bc0 09040001 050e0308 09040001 037e0904  .............~..
 1bd0 0001053b 037a0904 0001050e 0308090c  ...;.z..........
 1be0 00010302 09040001 037e0918 0001053b  .........~.....;
 1bf0 03780904 0001050e 03080914 0001037e  .x.............~
 1c00 090c0001 03020914 00010531 03020904  ...........1....
 1c10 0001053b 03760904 0001050b 030a0904  ...;.v..........
 1c20 0001050e 037c0904 00010531 03020904  .....|.....1....
 1c30 00010302 09040001 037e0910 00010302  .........~......
 1c40 09040001 05020603 77090400 01030209  ........w.......
 1c50 00000105 06030009 00000105 1a030009  ................
 1c60 00000105 03030109 00000103 01090000  ................
 1c70 01030109 00000103 01090000 01030109  ................
 1c80 00000103 01090000 01030109 00000105  ................
 1c90 3106037e 09000001 050b0302 09040001  1..~............
 1ca0 05030603 01090400 01030109 00000105  ................
 1cb0 16060300 09000001 0531037e 09040001  .........1.~....
 1cc0 05220302 09040001 050b037e 09080001  .".........~....
 1cd0 0531037e 09080001 050b0302 09080001  .1.~............
 1ce0 0531037e 09080001 050b0302 09040001  .1.~............
 1cf0 0531037e 09080001 050b0303 09040001  .1.~............
 1d00 05220301 09040001 050b037e 09040001  .".........~....
 1d10 05010305 09040001 050b037b 09040001  ...........{....
 1d20 03010914 00010503 06030209 14000105  ................
 1d30 2a037609 00000105 1a030009 00000105  *.v.............
 1d40 03030109 00000103 01090000 01030109  ................
 1d50 00000103 01090000 01030109 00000103  ................
 1d60 01090000 01030109 00000103 01090000  ................
 1d70 01030109 00000105 0b06037f 09000001  ................
 1d80 05220301 09040001 05030603 01090400  ."..............
 1d90 01052a03 76090000 01051a03 00090000  ..*.v...........
 1da0 01050303 01090000 01030109 00000103  ................
 1db0 01090000 01030109 00000103 01090000  ................
 1dc0 01030109 00000103 01090000 01030109  ................
 1dd0 00000103 01090000 01052206 03000900  ..........".....
 1de0 00010503 06030109 04000105 2a037609  ............*.v.
 1df0 00000105 1a030009 00000105 03030109  ................
 1e00 00000103 01090000 01030109 00000103  ................
 1e10 01090000 01030109 00000103 01090000  ................
 1e20 01030109 00000103 01090000 01030109  ................
 1e30 00000105 22060300 09000001 05030603  ...."...........
 1e40 01090400 01052a03 76090000 01051a03  ......*.v.......
 1e50 00090000 01050303 01090000 01030109  ................
 1e60 00000103 01090000 01030109 00000103  ................
 1e70 01090000 01030109 00000103 01090000  ................
 1e80 01030109 00000103 01090000 01052206  ..............".
 1e90 03000900 00010503 06030109 04000105  ................
 1ea0 2a037609 00000105 1a030009 00000105  *.v.............
 1eb0 03030109 00000103 01090000 01030109  ................
 1ec0 00000103 01090000 01030109 00000103  ................
 1ed0 01090000 01030109 00000103 01090000  ................
 1ee0 01030109 00000105 22060300 09000001  ........".......
 1ef0 05030603 01090400 01052a03 76090000  ..........*.v...
 1f00 01051a03 00090000 01050303 01090000  ................
 1f10 01030109 00000103 01090000 01030109  ................
 1f20 00000103 01090000 01030109 00000103  ................
 1f30 01090000 01030109 00000103 01090000  ................
 1f40 01052206 03000900 00010503 06030109  ..".............
 1f50 04000105 2a037609 00000105 1a030009  ....*.v.........
 1f60 00000105 0106030c 09000001 053a0603  .............:..
 1f70 01093000 01050203 03090000 01050603  ..0.............
 1f80 00090000 01052006 03050900 00010526  ...... ........&
 1f90 03000904 0001051b 06037b09 04000105  ..........{.....
 1fa0 1e060304 090c0001 05260305 09040001  .........&......
 1fb0 05030002 04030603 78092800 01000204  ........x.(.....
 1fc0 03030109 00000100 02040303 02090000  ................
 1fd0 01051600 02040306 03050904 00010002  ................
 1fe0 0403037c 09040001 05390002 04030304  ...|.....9......
 1ff0 09040001 05150002 0403037b 09040001  ...........{....
 2000 050c0002 04030300 09040001 00020403  ................
 2010 03040904 00010539 00020403 03010904  .......9........
 2020 0001050c 00020403 037b0904 00010503  .........{......
 2030 00020403 06030109 04000105 39000204  ............9...
 2040 03060300 09000001 050c0002 04030304  ................
 2050 09040001 00020403 037c0904 00010503  .........|......
 2060 00020403 06030109 04000105 0c000204  ................
 2070 03060304 09000001 052b0002 04030302  .........+......
 2080 09040001 050c0002 0403037a 09040001  ...........z....
 2090 05030002 04030603 02090400 01000204  ................
 20a0 03030109 00000100 02040303 01090000  ................
 20b0 01000204 03030209 00000100 02040303  ................
 20c0 01090000 01052f00 02040306 03000900  ....../.........
 20d0 00010503 00020403 06030209 04000105  ................
 20e0 2b000204 03037109 00000105 1b000204  +.....q.........
 20f0 03030009 00000105 02000204 03060300  ................
 2100 09000001 05010311 090c0001 052a0603  .............*..
 2110 02090400 01050203 01090000 01052a06  ..............*.
 2120 037f0900 00010300 09040001 05250301  .............%..
 2130 09080001 05020603 01090400 01052506  ..............%.
 2140 037f0904 0001050a 03010904 00010502  ................
 2150 06030109 10000105 07030009 00000105  ................
 2160 12030009 00000105 13030109 00000105  ................
 2170 04030109 00000105 13060300 09000001  ................
 2180 05250603 7f090400 01051303 00090000  .%..............
 2190 01050403 01090000 01051306 03000900  ................
 21a0 00010525 06037f09 04000105 13030009  ...%............
 21b0 00000105 04030109 00000105 13060300  ................
 21c0 09000001 05250603 7f090400 01051303  .....%..........
 21d0 00090000 01050303 03090000 01052503  ..............%.
 21e0 7c090000 01051203 00090000 01051303  |...............
 21f0 01090000 01050403 01090000 01051306  ................
 2200 03000900 00010525 06037f09 04000105  .......%........
 2210 13030009 00000105 04030109 00000105  ................
 2220 13060300 09000001 05250603 7f090400  .........%......
 2230 01051303 00090000 01050403 01090000  ................
 2240 01051306 03000900 00010525 06037f09  ...........%....
 2250 04000105 13030009 00000105 03030309  ................
 2260 00000105 25037c09 00000105 12030009  ....%.|.........
 2270 00000105 13030109 00000105 04030109  ................
 2280 00000105 13060300 09000001 05250603  .............%..
 2290 7f090400 01051303 00090000 01050403  ................
 22a0 01090000 01051306 03000900 00010525  ...............%
 22b0 06037f09 04000105 13030009 00000105  ................
 22c0 04030109 00000105 13060300 09000001  ................
 22d0 05250603 7f090400 01051303 00090000  .%..............
 22e0 01050303 03090000 01052503 7c090000  ..........%.|...
 22f0 01051203 00090000 01051303 01090000  ................
 2300 01050403 01090000 01051306 03000900  ................
 2310 00010525 06037f09 04000105 13030009  ...%............
 2320 00000105 04030109 00000105 13060300  ................
 2330 09000001 05250603 7f090400 01051303  .....%..........
 2340 00090000 01050403 01090000 01051306  ................
 2350 03000900 00010525 06037f09 04000105  .......%........
 2360 13030009 00000105 03030309 00000105  ................
 2370 25037c09 00000105 12030009 00000105  %.|.............
 2380 13030109 00000105 04030109 00000105  ................
 2390 13060300 09000001 05250603 7f090400  .........%......
 23a0 01051303 00090000 01050403 01090000  ................
 23b0 01051306 03000900 00010525 06037f09  ...........%....
 23c0 04000105 13030009 00000105 04030109  ................
 23d0 00000105 13060300 09000001 05250603  .............%..
 23e0 7f090400 01051303 00090000 01050303  ................
 23f0 03090000 01052503 7c090000 01051203  ......%.|.......
 2400 00090000 01050203 06090000 01051706  ................
 2410 03000900 00010513 03040908 00010517  ................
 2420 037c0904 00010515 03000908 0001050a  .|..............
 2430 03000904 00010502 06030209 04000105  ................
 2440 07030009 00000105 12030009 00000105  ................
 2450 13030109 00000105 04030109 00000105  ................
 2460 13060300 09000001 05250603 7f090400  .........%......
 2470 01051303 00090000 01050403 01090000  ................
 2480 01051306 03000900 00010525 06037f09  ...........%....
 2490 04000105 13030009 00000105 04030109  ................
 24a0 00000105 13060300 09000001 05250603  .............%..
 24b0 7f090400 01051303 00090000 01050303  ................
 24c0 03090000 01052503 7c090000 01051203  ......%.|.......
 24d0 00090000 01051303 01090000 01050403  ................
 24e0 01090000 01051306 03000900 00010525  ...............%
 24f0 06037f09 04000105 13030009 00000105  ................
 2500 04030109 00000105 13060300 09000001  ................
 2510 05250603 7f090400 01051303 00090000  .%..............
 2520 01050403 01090000 01051306 03000900  ................
 2530 00010525 06037f09 04000105 13030009  ...%............
 2540 00000105 03030309 00000105 25037c09  ............%.|.
 2550 00000105 12030009 00000105 13030109  ................
 2560 00000105 04030109 00000105 13060300  ................
 2570 09000001 05250603 7f090400 01051303  .....%..........
 2580 00090000 01050403 01090000 01051306  ................
 2590 03000900 00010525 06037f09 04000105  .......%........
 25a0 13030009 00000105 04030109 00000105  ................
 25b0 13060300 09000001 05250603 7f090400  .........%......
 25c0 01051303 00090000 01050303 03090000  ................
 25d0 01052503 7c090000 01051203 00090000  ..%.|...........
 25e0 01051303 01090000 01050403 01090000  ................
 25f0 01051306 03000900 00010525 06037f09  ...........%....
 2600 04000105 13030009 00000105 04030109  ................
 2610 00000105 13060300 09000001 05250603  .............%..
 2620 7f090400 01051303 00090000 01050403  ................
 2630 01090000 01051306 03000900 00010525  ...............%
 2640 06037f09 04000105 13030009 00000105  ................
 2650 03030309 00000105 25037c09 00000105  ........%.|.....
 2660 12030009 00000105 13030109 00000105  ................
 2670 04030109 00000105 13060300 09000001  ................
 2680 05250603 7f090400 01051303 00090000  .%..............
 2690 01050403 01090000 01051306 03000900  ................
 26a0 00010525 06037f09 04000105 13030009  ...%............
 26b0 00000105 04030109 00000105 13060300  ................
 26c0 09000001 05250603 7f090400 01051303  .....%..........
 26d0 00090000 01050303 03090000 01052503  ..............%.
 26e0 7c090000 01051203 00090000 01050203  |...............
 26f0 06090000 01051406 03000900 0001050f  ................
 2700 03000904 00010501 03010904 00010526  ...............&
 2710 06030209 08000105 02030209 00000105  ................
 2720 11060300 09000001 05020603 01090800  ................
 2730 01050703 00090000 01050f06 03000900  ................
 2740 00010531 03000904 00010506 037f0904  ...1............
 2750 00010305 09040001 050b037c 090c0001  ...........|....
 2760 052c0603 00090400 01053106 03000900  .,........1.....
 2770 00010502 03000908 00010503 00020403  ................
 2780 06030109 04000105 27000204 03060300  ........'.......
 2790 09080001 054e0002 04030603 7f090400  .....N..........
 27a0 01053100 02040306 03000900 0001054f  ..1............O
 27b0 00020403 03000904 0001052c 00020403  ...........,....
 27c0 06030009 04000105 31000204 03060300  ........1.......
 27d0 09000001 05020002 04030300 09040001  ................
 27e0 06030309 04000105 11060300 09000001  ................
 27f0 05020603 01090400 01050606 037f0900  ................
 2800 0001051e 03010904 00010505 03000904  ................
 2810 00010503 06030109 04000105 08030009  ................
 2820 00000105 10060300 09000001 05320300  .............2..
 2830 09040001 050c0300 09040001 052d0603  .............-..
 2840 00090400 01053206 03000900 00010503  ......2.........
 2850 03000904 0001050f 03010904 00010504  ................
 2860 00020403 06030009 04000105 11000204  ................
 2870 03060300 09000001 050f0002 04030300  ................
 2880 09080001 05280002 04030300 09080001  .....(..........
 2890 054f0002 04030603 7f090400 01053200  .O............2.
 28a0 02040306 03000900 00010550 00020403  ...........P....
 28b0 03000904 0001052d 00020403 06030009  .......-........
 28c0 04000105 32000204 03060300 09000001  ....2...........
 28d0 05030002 04030300 09040001 05020603  ................
 28e0 04090400 01050f06 03000900 00010502  ................
 28f0 06030209 20000105 0d060300 09000001  .... ...........
 2900 05020603 01090400 01050703 00090000  ................
 2910 01050f06 03000900 00010528 03000904  ...........(....
 2920 0001050b 037f0904 00010506 03050904  ................
 2930 0001050b 037c090c 00010523 06030009  .....|.....#....
 2940 04000105 28060300 09000001 052e0301  ....(...........
 2950 09080001 0502037f 09040001 05030002  ................
 2960 04030603 01090400 01053200 02040306  ..........2.....
 2970 03000900 00010555 00020403 03000914  .......U........
 2980 0001052e 00020403 03000904 00010527  ...............'
 2990 00020403 03000904 0001053c 00020403  ...........<....
 29a0 06037f09 04000105 28000204 03060300  ........(.......
 29b0 09000001 053d0002 04030300 09040001  .....=..........
 29c0 05230002 04030603 00090400 01052800  .#............(.
 29d0 02040306 03000900 00010502 00020403  ................
 29e0 03000904 00010603 03090400 01050d06  ................
 29f0 03000900 00010502 06030109 04000105  ................
 2a00 0b06037f 09000001 051e0301 09040001  ................
 2a10 05050300 09040001 05030603 01090400  ................
 2a20 01050803 00090000 01051006 03000900  ................
 2a30 00010529 03000904 0001050c 03000904  ...)............
 2a40 00010524 06030009 04000105 29060300  ...$........)...
 2a50 09000001 05030300 09040001 050f0301  ................
 2a60 09040001 05360300 09040001 052f0300  .....6......./..
 2a70 09040001 05040002 04030603 00090400  ................
 2a80 01053900 02040306 03000900 00010511  ..9.............
 2a90 00020403 03000904 00010539 00020403  ...........9....
 2aa0 03000908 00010536 00020403 03000908  .......6........
 2ab0 0001050f 00020403 03000904 00010536  ...............6
 2ac0 00020403 03000904 0001052f 00020403  .........../....
 2ad0 03000904 0001050f 00020403 03000904  ................
 2ae0 00010528 00020403 03000904 0001053d  ...(...........=
 2af0 00020403 06037f09 04000105 29000204  ............)...
 2b00 03060300 09000001 053e0002 04030300  .........>......
 2b10 09040001 05240002 04030603 00090400  .....$..........
 2b20 01052900 02040306 03000900 00010503  ..).............
 2b30 00020403 03000904 00010501 03040904  ................
 2b40 0001051e 06030309 08000105 02030109  ................
 2b50 00000105 07030009 00000105 23030009  ............#...
 2b60 00000105 15060300 09000001 05020300  ................
 2b70 09040001 05030002 04030603 01090400  ................
 2b80 01050600 02040306 03000900 0001053b  ...............;
 2b90 00020403 06037f09 04000105 3c000204  ............<...
 2ba0 03060300 09000001 05230002 04030603  .........#......
 2bb0 00090400 01050200 02040306 03000900  ................
 2bc0 00010501 03030904 00010513 06030209  ................
 2bd0 04000105 02030109 00000103 01090000  ................
 2be0 01050703 00090000 01051203 00090000  ................
 2bf0 01051006 037f0900 00010502 03010904  ................
 2c00 00010510 037f0904 0001050c 03030904  ................
 2c10 00010302 09040001 0502037c 09040001  ...........|....
 2c20 05030002 04030603 02090400 01050c00  ................
 2c30 02040306 03000900 00010503 00020403  ................
 2c40 06030109 04000100 02040303 01090000  ................
 2c50 01050c00 02040306 03000900 00010503  ................
 2c60 00020403 06030109 04000105 1b000204  ................
 2c70 03037b09 08000105 12000204 03030009  ..{.............
 2c80 00000105 02000204 03060300 09000001  ................
 2c90 05010308 09040001 053e0603 02090400  .........>......
 2ca0 01050203 01090000 01030109 00000105  ................
 2cb0 07030009 00000105 12030009 00000105  ................
 2cc0 3e06037e 09000001 05110312 09100001  >..~............
 2cd0 03020904 0001037b 09040001 03080904  .......{........
 2ce0 00010302 09040001 05020369 09040001  ...........i....
 2cf0 053e037e 09040001 03000908 00010511  .>.~............
 2d00 03120904 00010302 09040001 05060376  ...............v
 2d10 09040001 05110303 09040001 03020904  ................
 2d20 00010506 037b0904 00010511 030d0904  .....{..........
 2d30 00010302 09040001 05020369 09040001  ...........i....
 2d40 05140603 02090400 01050c06 03000904  ................
 2d50 00010510 03020904 00010506 03040904  ................
 2d60 00010504 06037c09 08000105 07060300  ......|.........
 2d70 09000001 05100002 04010300 09040001  ................
 2d80 05060304 090c0001 05110312 09040001  ................
 2d90 05080603 01090400 01030109 00000105  ................
 2da0 11060300 09000001 05080603 01090400  ................
 2db0 01050600 02040203 02090000 01052700  ..............'.
 2dc0 02040203 68090400 01051500 02040203  ....h...........
 2dd0 00090000 01050500 02040206 03000900  ................
 2de0 00010506 06030109 08000105 19060300  ................
 2df0 09000001 05060300 09040001 05080603  ................
 2e00 12090400 01050606 036e0900 00010508  .........n......
 2e10 06030309 04000105 11060300 09000001  ................
 2e20 05080603 01090400 01030109 00000105  ................
 2e30 11060300 09000001 05080603 01090400  ................
 2e40 01050603 11090000 01052703 68090400  ..........'.h...
 2e50 01051503 00090000 01050506 03000900  ................
 2e60 00010525 00020402 06037b09 08000105  ...%......{.....
 2e70 27000204 02060300 09000001 05140002  '...............
 2e80 04020603 00090400 01050300 02040206  ................
 2e90 03000900 00010525 00020402 06037e09  .......%......~.
 2ea0 0c000105 12000204 02030009 00000105  ................
 2eb0 02000204 02060300 09000001 05010325  ...............%
 2ec0 09100001 05080603 6b091400 01051106  ........k.......
 2ed0 03000900 00010508 06030109 04000103  ................
 2ee0 01090000 01051106 03000900 00010508  ................
 2ef0 06030109 04000103 02090400 01051106  ................
 2f00 03000900 00010508 06030109 04000103  ................
 2f10 01090000 01051106 03000900 00010508  ................
 2f20 06030109 04000109 04000001 01640100  .............d..
 2f30 00030045 00000001 01fb0e0d 00010101  ...E............
 2f40 01000000 01000001 2e2e2f2e 2e2f2e2e  ........../../..
 2f50 2f2e2f72 69736376 2d676363 2f6c6962  /./riscv-gcc/lib
 2f60 6763632f 636f6e66 69672f72 69736376  gcc/config/riscv
 2f70 00006469 762e5300 01000000 0005029c  ..div.S.........
 2f80 11000003 c4000103 01090400 01030409  ................
 2f90 04000103 01090400 01030109 04000103  ................
 2fa0 01090400 01030109 04000103 01090400  ................
 2fb0 01030209 04000103 01090400 01030109  ................
 2fc0 04000103 01090400 01030209 04000103  ................
 2fd0 02090400 01030109 04000103 01090400  ................
 2fe0 01030209 04000103 01090400 01030109  ................
 2ff0 04000103 02090400 01030509 04000103  ................
 3000 01090400 01030109 04000103 01090400  ................
 3010 01030509 04000103 02090400 01030209  ................
 3020 04000103 01090400 01030209 04000103  ................
 3030 02090400 01030109 04000103 01090400  ................
 3040 01030109 04000103 04090400 01030109  ................
 3050 04000103 01090400 01030209 04000103  ................
 3060 01090400 01030109 04000103 02090400  ................
 3070 01030109 04000103 02090400 01030109  ................
 3080 04000103 01090400 01030109 04000109  ................
 3090 04000001 01                          .....           
Contents of section .debug_info:
 0000 22000000 02000000 00000401 00000000  "...............
 0010 00000000 10000000 00000000 0b000000  ................
 0020 49000000 01800404 00000400 14000000  I...............
 0030 04016c00 00000c2b 0100000b 000000c0  ..l....+........
 0040 00000064 06000045 00000002 0405696e  ...d...E......in
 0050 74000310 022b0966 00000004 7800022d  t....+.f....x..-
 0060 06250000 00000479 00022d09 25000000  .%.....y..-.%...
 0070 04054101 0000022e 06250000 000805c6  ..A......%......
 0080 00000002 2e0e2500 00000c00 06b60000  ......%.........
 0090 00022f03 2c000000 07660000 0008e300  ../.,....f......
 00a0 00000150 05250000 00e00300 00440300  ...P.%.......D..
 00b0 00019ceb 01000009 706f7300 015023eb  ........pos..P#.
 00c0 01000000 0000000a d1020000 01503aeb  .............P:.
 00d0 01000001 5b0b0401 00000150 48250000  ....[......PH%..
 00e0 001e0000 000bf302 00000150 570f0200  ...........PW...
 00f0 00580000 000cbf01 00000153 06250000  .X.........S.%..
 0100 009d0000 000d6302 0000e403 00001800  ......c.........
 0110 00000151 02380100 000e8802 0000b000  ...Q.8..........
 0120 00000e7c 020000ea 0000000e 70020000  ...|........p...
 0130 13010000 0f630200 00100700 00140000  .....c..........
 0140 00011f06 10700200 00015f10 88020000  .....p...._.....
 0150 04f3015c 9f107c02 0000015b 00000dce  ...\..|....[....
 0160 020000fc 03000040 00000001 5202a601  .......@....R...
 0170 00000eff 0200003c 0100000e f3020000  .......<........
 0180 6e010000 0ee70200 009d0100 000edb02  n...............
 0190 0000c601 000011ce 02000028 04000060  ...........(...`
 01a0 00000001 10060edb 020000ef 0100000e  ................
 01b0 f3020000 0d020000 0eff0200 002f0200  ............./..
 01c0 000ee702 00005302 00000000 11150200  ......S.........
 01d0 00300400 00780000 0001530e 0e3e0200  .0...x....S..>..
 01e0 00710200 000e3202 0000a802 00000e26  .q....2........&
 01f0 020000d1 02000012 78000000 134a0200  ........x....J..
 0200 00fa0200 00135602 00009303 00000000  ......V.........
 0210 00140472 00000015 08020000 01020000  ...r............
 0220 16010200 00120017 04076502 00001701  ..........e.....
 0230 08da0100 001404f1 01000018 15010000  ................
 0240 01290525 00000001 63020000 19390100  .).%....c....9..
 0250 0001292d eb010000 19d10200 00012948  ..)-..........)H
 0260 eb010000 19f30200 00012957 0f020000  ..........)W....
 0270 1a580100 00012b06 25000000 1a500100  .X....+.%....P..
 0280 00012c06 25000000 001b5500 0000011f  ..,.%.....U.....
 0290 06019502 00001939 01000001 1f2feb01  .......9...../..
 02a0 000019d1 02000001 1f4aeb01 00001904  .........J......
 02b0 01000001 1f582500 00000008 cd000000  .....X%.........
 02c0 011b0525 0000002c 01000010 00000001  ...%...,........
 02d0 9cce0200 000b3901 0000011b 2deb0100  ......9.....-...
 02e0 00080400 000abe00 0000011b 3a250000  ............:%..
 02f0 00015b00 1bef0000 00011006 010c0300  ..[.............
 0300 00193901 00000110 2deb0100 0019d102  ..9.....-.......
 0310 00000110 48eb0100 00190d01 00000110  ....H...........
 0320 56250000 00194801 00000110 63250000  V%....H.....c%..
 0330 00001cce 020000c0 0000006c 00000001  ...........l....
 0340 9c750300 0010db02 0000015a 10e70200  .u.........Z....
 0350 00015b0e f3020000 29040000 0eff0200  ..[.....).......
 0360 00700400 0011ce02 0000ec00 00000000  .p..............
 0370 00000110 060edb02 00009004 00000ef3  ................
 0380 020000ae 0400000e ff020000 d2040000  ................
 0390 0ee70200 00f40400 0000001c 63020000  ............c...
 03a0 3c010000 8c000000 019ccc03 00001070  <..............p
 03b0 02000001 5a107c02 0000015b 0e880200  ....Z.|....[....
 03c0 00120500 000f6302 0000b401 00001000  ......c.........
 03d0 0000011f 060e7002 00003305 00000e88  ......p...3.....
 03e0 02000046 0500000e 7c020000 5c050000  ...F....|...\...
 03f0 00001d15 020000c8 01000018 02000001  ................
 0400 9c0e2602 00006f05 00001032 02000001  ..&...o....2....
 0410 5b0e3e02 0000e605 0000134a 02000020  [.>........J... 
 0420 06000013 56020000 cf060000 00004c05  ....V.........L.
 0430 00000400 c5010000 04016c00 00000c9c  ..........l.....
 0440 02000016 03000008 01000000 00000049  ...............I
 0450 0e000002 08022609 45000000 03780002  ......&.E....x..
 0460 28064500 00000003 79000228 09450000  (.E.....y..(.E..
 0470 00040004 0405696e 74000545 00000006  ......int..E....
 0480 03030000 02290325 00000005 51000000  .....).%....Q...
 0490 0210022b 099c0000 00037800 022d0645  ...+......x..-.E
 04a0 00000000 03790002 2d094500 00000407  .....y..-.E.....
 04b0 41010000 022e0645 00000008 07c60000  A......E........
 04c0 00022e0e 45000000 0c0006b6 00000002  ....E...........
 04d0 2f036200 0000059c 00000008 04076502  /.b...........e.
 04e0 00000808 058e0200 00081004 e2020000  ................
 04f0 080106d3 01000008 0108d101 00000802  ................
 0500 05bd0200 00080207 fd010000 08040593  ................
 0510 02000008 04076002 00000808 075b0200  ......`......[..
 0520 00080108 da010000 09f30000 000afa00  ................
 0530 00001501 00000bad 00000011 0bad0000  ................
 0540 00120009 ff000000 0c2b0200 0001120c  .........+......
 0550 15010000 0503201e 00000af3 00000042  ...... ........B
 0560 0100000b ad000000 110bad00 00001200  ................
 0570 0cc50100 00012306 2c010000 05036418  ......#.,.....d.
 0580 00000ceb 01000001 25166c01 00000503  ........%.l.....
 0590 141e0000 0d044c00 00000966 0100000e  ......L....f....
 05a0 454e4300 0126166c 01000005 03101e00  ENC..&.l........
 05b0 000c7e01 00000127 166c0100 0005030c  ..~....'.l......
 05c0 1e00000c 36020000 0128166c 01000005  ....6....(.l....
 05d0 03081e00 000cc702 0000012a 166c0100  ...........*.l..
 05e0 00050304 1e00000c 50020000 012c145d  ........P....,.]
 05f0 00000005 031c1800 000c4202 0000012d  ..........B....-
 0600 12a80000 00050344 1800000c cc020000  .......D........
 0610 012e12a8 00000005 03541800 000ca702  .........T......
 0620 00000130 0e4c0000 00050318 1800000c  ...0.L..........
 0630 10020000 01310e4c 00000005 03141800  .....1.L........
 0640 000c8301 00000132 0e4c0000 00050310  .......2.L......
 0650 1800000c a3010000 01330e4c 00000005  .........3.L....
 0660 030c1800 000c0d03 00000134 0e4c0000  ...........4.L..
 0670 000503fc 1d00000c 1f020000 01360e4c  .............6.L
 0680 00000005 03081800 000cbf01 00000137  ...............7
 0690 0e4c0000 00050304 1800000c 19020000  .L..............
 06a0 01380e4c 00000005 03001800 000f4b02  .8.L..........K.
 06b0 0000018e 06401600 00a40100 00019c7d  .....@.........}
 06c0 03000010 b0000000 63030000 11be0100  ........c.......
 06d0 0001a508 45000000 44070000 10f00000  ....E...D.......
 06e0 00c60200 00126900 01aa0d45 00000078  ......i....E...x
 06f0 07000000 13610400 00b01600 00d00000  .....a..........
 0700 00019d05 14a10400 00f01600 003c0000  .............<..
 0710 0001a404 fb020000 15a10400 00181700  ................
 0720 00140000 00013f06 0016ec16 0000dd04  ......?.........
 0730 00001903 00001701 5a050344 18000017  ........Z..D....
 0740 015b030a 1b020016 40170000 e9040000  .[......@.......
 0750 3c030000 17015a05 03441800 0017015b  <.....Z..D.....[
 0760 02870017 015d0285 00001858 1700007d  .....].....X...}
 0770 03000016 74170000 f5040000 59030000  ....t.......Y...
 0780 17015a02 85000018 cc170000 7d030000  ..Z.........}...
 0790 00189416 00001e04 000019a0 160000f5  ................
 07a0 04000017 015a0285 0000000f 6e010000  .....Z......n...
 07b0 0183068c 090000e4 00000001 9c1e0400  ................
 07c0 00126263 64000187 06450000 008c0700  ..bcd....E......
 07d0 0016d009 00000105 0000b703 00001701  ................
 07e0 5a027200 0018e409 00000d05 000018ec  Z.r.............
 07f0 09000016 05000018 fc090000 0d050000  ................
 0800 18040a00 00160500 0018200a 00001605  .......... .....
 0810 00001634 0a00001f 050000ff 03000017  ...4............
 0820 015b030a 32321701 5c028200 0016480a  .[..22..\.....H.
 0830 00001f05 00001404 00001701 5b030a32  ............[..2
 0840 64001a70 0a00002b 05000000 0f980100  d..p...+........
 0850 00017a06 b8080000 d4000000 019c6104  ..z...........a.
 0860 00001361 04000028 09000098 00000001  ...a...(........
 0870 800216cc 08000037 05000057 04000017  .......7...W....
 0880 015a0130 00181c09 00004305 0000001b  .Z.0......C.....
 0890 72020000 016c0601 0fda0200 00014d25  r....l........M%
 08a0 70070000 ec000000 019ca104 000011b6  p...............
 08b0 01000001 4f064500 0000c207 00001187  ....O.E.........
 08c0 02000001 50064500 0000e007 0000001b  ....P.E.........
 08d0 60010000 013f0601 1ca10400 00240700  `....?.......$..
 08e0 004c0000 00019cce 04000015 a1040000  .L..............
 08f0 40070000 14000000 013f0600 1d610400  @........?...a..
 0900 005c0800 005c0000 00019c1e cd000000  .\...\..........
 0910 cd000000 0313051e e3000000 e3000000  ................
 0920 0317051e ee020000 ee020000 0418061e  ................
 0930 7d020000 7d020000 0420061f fa020000  }...}.... ......
 0940 fa020000 1ff40100 00f40100 001edf01  ................
 0950 0000df01 0000041e 061eb102 0000b102  ................
 0960 00000422 061e8b01 00008b01 00000424  ..."...........$
 0970 061eab01 0000ab01 00000426 06002105  ...........&..!.
 0980 00000400 88030000 04016c00 00000c8d  ..........l.....
 0990 0300000b 00000070 0a00002c 07000062  .......p...,...b
 09a0 17000002 08022609 45000000 03780002  ......&.E....x..
 09b0 28064500 00000003 79000228 09450000  (.E.....y..(.E..
 09c0 00040004 0405696e 74000545 00000006  ......int..E....
 09d0 45000000 07030300 00022903 25000000  E.........).%...
 09e0 06560000 00021002 2b09a100 00000378  .V......+......x
 09f0 00022d06 45000000 00037900 022d0945  ..-.E.....y..-.E
 0a00 00000004 08410100 00022e06 45000000  .....A......E...
 0a10 0808c600 0000022e 0e450000 000c0007  .........E......
 0a20 b6000000 022f0367 00000006 a1000000  ...../.g........
 0a30 09d50000 00c20000 000ac700 00003300  ..............3.
 0a40 05b20000 000b0407 65020000 0b0108da  ........e.......
 0a50 01000005 ce000000 0cf00300 0001130c  ................
 0a60 c2000000 0503781f 000009d5 000000fc  ......x.........
 0a70 0000000a c7000000 450005ec 0000000c  ........E.......
 0a80 b8030000 01140cfc 00000005 03ac1f00  ................
 0a90 00094c00 00002301 00000ac7 0000009f  ..L...#.........
 0aa0 00051301 00000cd2 03000001 150b2301  ..............#.
 0ab0 00000503 f41f0000 0c650300 00011716  .........e......
 0ac0 52010000 0503181e 00000d04 51000000  R...........Q...
 0ad0 054c0100 000c5803 00000118 0e510000  .L....X......Q..
 0ae0 00050324 1800000c 10040000 011912ad  ...$............
 0af0 00000005 03bc1900 000eee02 00000193  ................
 0b00 069c1000 00000100 00019cef 0100000f  ................
 0b10 77030000 019317ff 0100001d 08000010  w...............
 0b20 c1030000 0194104c 01000049 08000011  .......L...I....
 0b30 a0030000 12790001 950b4500 0000f508  .....y....E.....
 0b40 000011d0 03000012 79700001 970c4500  ........yp....E.
 0b50 00000909 00001100 04000012 7800019c  ............x...
 0b60 0e450000 00330900 00000000 0009ce00  .E...3..........
 0b70 0000ff01 00000ac7 00000012 000d04ef  ................
 0b80 01000013 ab010000 0187066c 10000030  ...........l...0
 0b90 00000001 9c400200 0010c103 00000188  .....@..........
 0ba0 104c0100 009f0900 00118003 00001269  .L.............i
 0bb0 0001890b 45000000 da090000 00000e8b  ....E...........
 0bc0 01000001 81065410 00001800 0000019c  ......T.........
 0bd0 7d020000 14800300 00018117 45000000  }...........E...
 0be0 015a1554 10000014 00000012 69000182  .Z.T........i...
 0bf0 154c0100 00ee0900 0000000e 7d020000  .L..........}...
 0c00 016606c8 0e00008c 01000001 9c230300  .f...........#..
 0c10 0016706f 73000166 21ad0000 00027a00  ..pos..f!.....z.
 0c20 106e0300 00016806 45000000 100a0000  .n....h.E.......
 0c30 10e70300 00016c06 45000000 480a0000  ......l.E...H...
 0c40 17380300 00da0200 00127900 01690b45  .8........y..i.E
 0c50 00000080 0a000000 18240f00 003c0000  .........$...<..
 0c60 00f60200 00127900 016e0c45 00000093  ......y..n.E....
 0c70 0a000000 17500300 000e0300 00127900  .....P........y.
 0c80 01750b45 000000a6 0a000000 11680300  .u.E.........h..
 0c90 00127900 017a0c45 000000c4 0a000000  ..y..z.E........
 0ca0 000eb102 00000152 06fc0d00 00cc0000  .......R........
 0cb0 00019ca9 03000016 706f7300 01522562  ........pos..R%b
 0cc0 00000002 917810c1 03000001 53104c01  .....x......S.L.
 0cd0 0000d70a 00001824 0e00003c 00000084  .......$...<....
 0ce0 03000019 79000155 0b450000 0011b802  ....y..U.E......
 0cf0 00001278 0001560c 45000000 960b0000  ...x..V.E.......
 0d00 000011e8 02000019 7900015d 0b450000  ........y..].E..
 0d10 00110003 00001278 00015e0c 45000000  .......x..^.E...
 0d20 5e0c0000 0000000e df010000 013c066c  ^............<.l
 0d30 0d000090 00000001 9c2e0400 000f8603  ................
 0d40 0000013c 16450000 00260d00 000fc103  ...<.E...&......
 0d50 0000013c 22450000 00470d00 00149c03  ...<"E...G......
 0d60 0000013c 2f450000 00015c15 6c0d0000  ...</E....\.l...
 0d70 8c000000 10ae0300 00013f0a 45000000  ..........?.E...
 0d80 5a0d0000 11a00200 0010c903 00000140  Z..............@
 0d90 07450000 006f0d00 00101d04 00000141  .E...o.........A
 0da0 07450000 00990d00 00000000 0eda0300  .E..............
 0db0 00012c06 dc0b0000 90010000 019cb204  ..,.............
 0dc0 00000f86 03000001 2c174500 0000b80d  ........,.E.....
 0dd0 00000fc1 03000001 2c234500 0000d90d  ........,#E.....
 0de0 0000149c 03000001 2c304500 0000015c  ........,0E....\
 0df0 1a0a0400 00012d06 45000000 06f3015a  ......-.E......Z
 0e00 3f1a9f11 d0010000 10ae0300 00012f0a  ?............./.
 0e10 45000000 750e0000 11200200 0010a603  E...u.... ......
 0e20 00000130 07450000 00e10e00 00000000  ...0.E..........
 0e30 1bfb0300 00011b06 700a0000 6c010000  ........p...l...
 0e40 019c0f86 03000001 1b194500 0000d510  ..........E.....
 0e50 00000fc1 03000001 1b254500 0000f610  .........%E.....
 0e60 00001a0a 04000001 1c064500 000006f3  ..........E.....
 0e70 015a3f1a 9f112001 000010ae 03000001  .Z?... .........
 0e80 1e0a4500 00001711 00001168 01000010  ..E........h....
 0e90 a6030000 011f0745 00000069 11000000  .......E...i....
 0ea0 00000022 00000002 00170500 0004012d  ..."...........-
 0eb0 2f00009c 11000050 12000026 04000055  /......P...&...U
 0ec0 04000049 00000001 80                 ...I.....       
Contents of section .debug_abbrev:
 0000 01110010 06110112 01030e1b 0e250e13  .............%..
 0010 05000000 01110125 0e130b03 0e1b0e11  .......%........
 0020 01120610 17000002 24000b0b 3e0b0308  ........$...>...
 0030 00000313 010b0b3a 0b3b0b39 0b011300  .......:.;.9....
 0040 00040d00 03083a0b 3b0b390b 4913380b  ......:.;.9.I.8.
 0050 0000050d 00030e3a 0b3b0b39 0b491338  .......:.;.9.I.8
 0060 0b000006 1600030e 3a0b3b0b 390b4913  ........:.;.9.I.
 0070 00000735 00491300 00082e01 3f19030e  ...5.I......?...
 0080 3a0b3b0b 390b2719 49131101 12064018  :.;.9.'.I.....@.
 0090 97421901 13000009 05000308 3a0b3b0b  .B..........:.;.
 00a0 390b4913 02170000 0a050003 0e3a0b3b  9.I..........:.;
 00b0 0b390b49 13021800 000b0500 030e3a0b  .9.I..........:.
 00c0 3b0b390b 49130217 00000c34 00030e3a  ;.9.I......4...:
 00d0 0b3b0b39 0b491302 1700000d 1d013113  .;.9.I........1.
 00e0 52015517 580b590b 570b0113 00000e05  R.U.X.Y.W.......
 00f0 00311302 1700000f 1d013113 11011206  .1........1.....
 0100 580b590b 570b0000 10050031 13021800  X.Y.W......1....
 0110 00111d01 31135201 5517580b 590b570b  ....1.R.U.X.Y.W.
 0120 0000120b 01551700 00133400 31130217  .....U....4.1...
 0130 0000140f 000b0b49 13000015 01014913  .......I......I.
 0140 01130000 16210049 132f0b00 00172400  .....!.I./....$.
 0150 0b0b3e0b 030e0000 182e013f 19030e3a  ..>........?...:
 0160 0b3b0b39 0b271949 13200b01 13000019  .;.9.'.I. ......
 0170 0500030e 3a0b3b0b 390b4913 00001a34  ....:.;.9.I....4
 0180 00030e3a 0b3b0b39 0b491300 001b2e01  ...:.;.9.I......
 0190 3f19030e 3a0b3b0b 390b2719 200b0113  ?...:.;.9.'. ...
 01a0 00001c2e 01311311 01120640 18974219  .....1.....@..B.
 01b0 01130000 1d2e0131 13110112 06401897  .......1.....@..
 01c0 42190000 00011101 250e130b 030e1b0e  B.......%.......
 01d0 55171101 10170000 0213010b 0b3a0b3b  U............:.;
 01e0 0b390b01 13000003 0d000308 3a0b3b0b  .9..........:.;.
 01f0 390b4913 380b0000 0424000b 0b3e0b03  9.I.8....$...>..
 0200 08000005 35004913 00000616 00030e3a  ....5.I........:
 0210 0b3b0b39 0b491300 00070d00 030e3a0b  .;.9.I........:.
 0220 3b0b390b 4913380b 00000824 000b0b3e  ;.9.I.8....$...>
 0230 0b030e00 00092600 49130000 0a010149  ......&.I......I
 0240 13011300 000b2100 49132f0b 00000c34  ......!.I./....4
 0250 00030e3a 0b3b0b39 0b49133f 19021800  ...:.;.9.I.?....
 0260 000d0f00 0b0b4913 00000e34 0003083a  ......I....4...:
 0270 0b3b0b39 0b49133f 19021800 000f2e01  .;.9.I.?........
 0280 3f19030e 3a0b3b0b 390b1101 12064018  ?...:.;.9.....@.
 0290 97421901 13000010 0b015517 01130000  .B........U.....
 02a0 11340003 0e3a0b3b 0b390b49 13021700  .4...:.;.9.I....
 02b0 00123400 03083a0b 3b0b390b 49130217  ..4...:.;.9.I...
 02c0 0000131d 00311352 01551758 0b590b57  .....1.R.U.X.Y.W
 02d0 0b000014 1d013113 11011206 580b590b  ......1.....X.Y.
 02e0 570b0113 0000151d 00311311 01120658  W........1.....X
 02f0 0b590b57 0b000016 89820101 11013113  .Y.W..........1.
 0300 01130000 178a8201 00021891 42180000  ............B...
 0310 18898201 00110131 13000019 89820101  .......1........
 0320 11013113 00001a89 82010011 01954219  ..1...........B.
 0330 31130000 1b2e003f 19030e3a 0b3b0b39  1......?...:.;.9
 0340 0b200b00 001c2e01 31131101 12064018  . ......1.....@.
 0350 97421901 1300001d 2e003113 11011206  .B........1.....
 0360 40189742 1900001e 2e003f19 3c196e0e  @..B......?.<.n.
 0370 030e3a0b 3b0b390b 00001f2e 003f193c  ..:.;.9......?.<
 0380 196e0e03 0e000000 01110125 0e130b03  .n.........%....
 0390 0e1b0e11 01120610 17000002 13010b0b  ................
 03a0 3a0b3b0b 390b0113 0000030d 0003083a  :.;.9..........:
 03b0 0b3b0b39 0b491338 0b000004 24000b0b  .;.9.I.8....$...
 03c0 3e0b0308 00000526 00491300 00063500  >......&.I....5.
 03d0 49130000 07160003 0e3a0b3b 0b390b49  I........:.;.9.I
 03e0 13000008 0d00030e 3a0b3b0b 390b4913  ........:.;.9.I.
 03f0 380b0000 09010149 13011300 000a2100  8......I......!.
 0400 49132f0b 00000b24 000b0b3e 0b030e00  I./....$...>....
 0410 000c3400 030e3a0b 3b0b390b 49133f19  ..4...:.;.9.I.?.
 0420 02180000 0d0f000b 0b491300 000e2e01  .........I......
 0430 3f19030e 3a0b3b0b 390b2719 11011206  ?...:.;.9.'.....
 0440 40189742 19011300 000f0500 030e3a0b  @..B..........:.
 0450 3b0b390b 49130217 00001034 00030e3a  ;.9.I......4...:
 0460 0b3b0b39 0b491302 17000011 0b015517  .;.9.I........U.
 0470 00001234 0003083a 0b3b0b39 0b491302  ...4...:.;.9.I..
 0480 17000013 2e013f19 030e3a0b 3b0b390b  ......?...:.;.9.
 0490 11011206 40189742 19011300 00140500  ....@..B........
 04a0 030e3a0b 3b0b390b 49130218 0000150b  ..:.;.9.I.......
 04b0 01110112 06000016 05000308 3a0b3b0b  ............:.;.
 04c0 390b4913 02180000 170b0155 17011300  9.I........U....
 04d0 00180b01 11011206 01130000 19340003  .............4..
 04e0 083a0b3b 0b390b49 1300001a 3400030e  .:.;.9.I....4...
 04f0 3a0b3b0b 390b4913 02180000 1b2e013f  :.;.9.I........?
 0500 19030e3a 0b3b0b39 0b271911 01120640  ...:.;.9.'.....@
 0510 18974219 00000001 11001006 11011201  ..B.............
 0520 030e1b0e 250e1305 000000             ....%......     
Contents of section .debug_aranges:
 0000 1c000000 02000000 00000400 00000000  ................
 0010 00000000 10000000 00000000 00000000  ................
 0020 1c000000 02002600 00000400 00000000  ......&.........
 0030 c0000000 64060000 00000000 00000000  ....d...........
 0040 24000000 02002e04 00000400 00000000  $...............
 0050 24070000 4c030000 40160000 a4010000  $...L...@.......
 0060 00000000 00000000 1c000000 02007e09  ..............~.
 0070 00000400 00000000 700a0000 2c070000  ........p...,...
 0080 00000000 00000000 1c000000 0200a30e  ................
 0090 00000400 00000000 9c110000 b4000000  ................
 00a0 00000000 00000000                    ........        
Contents of section .debug_str:
 0000 7372632f 696e6974 2e73002f 6d6e742f  src/init.s./mnt/
 0010 632f5573 6572732f 4a616b65 20416c74  c/Users/Jake Alt
 0020 2f736f75 7263652f 63616c70 6f6c792f  /source/calpoly/
 0030 63706532 33332f70 726f6772 616d732f  cpe233/programs/
 0040 656e632d 74657374 00474e55 20415320  enc-test.GNU AS 
 0050 322e3335 00636865 636b5f70 6164646c  2.35.check_paddl
 0060 655f636f 6c6c6973 696f6e00 474e5520  e_collision.GNU 
 0070 43313720 31302e32 2e30202d 6d617263  C17 10.2.0 -marc
 0080 683d7276 33326920 2d6d6162 693d696c  h=rv32i -mabi=il
 0090 70333220 2d6d7475 6e653d72 6f636b65  p32 -mtune=rocke
 00a0 74202d6d 61726368 3d727633 3269202d  t -march=rv32i -
 00b0 67202d4f 33007665 63746f72 3200666c  g -O3.vector2.fl
 00c0 6f6f725f 7900795f 66696e65 00636865  oor_y.y_fine.che
 00d0 636b5f66 6c6f6f72 5f636f6c 6c697369  ck_floor_collisi
 00e0 6f6e0075 70646174 655f6261 6c6c0063  on.update_ball.c
 00f0 6865636b 5f77616c 6c5f636f 6c6c6973  heck_wall_collis
 0100 696f6e00 70616464 6c655f78 006c7761  ion.paddle_x.lwa
 0110 6c6c5f78 00636865 636b5f62 7269636b  ll_x.check_brick
 0120 5f636f6c 6c697369 6f6e0073 72632f70  _collision.src/p
 0130 68797369 63732e63 0062616c 6c706f73  hysics.c.ballpos
 0140 00785f66 696e6500 7277616c 6c5f7800  .x_fine.rwall_x.
 0150 74617267 65747800 74617267 65747900  targetx.targety.
 0160 75706461 74655f70 6164646c 65007570  update_paddle.up
 0170 64617465 5f677261 70686963 73004c45  date_graphics.LE
 0180 44530065 6e635f64 69720063 6c656172  DS.enc_dir.clear
 0190 5f736372 65656e00 696e6974 69616c69  _screen.initiali
 01a0 7a650065 6e635f62 746e0064 7261775f  ze.enc_btn.draw_
 01b0 77616c6c 73007265 6164696e 67006473  walls.reading.ds
 01c0 636f7265 00627269 636b7373 74617465  core.bricksstate
 01d0 00756e73 69676e65 64206368 61720064  .unsigned char.d
 01e0 7261775f 6e756d5f 786c0053 57495443  raw_num_xl.SWITC
 01f0 48455300 5f5f6d6f 64736933 0073686f  HES.__modsi3.sho
 0200 72742075 6e736967 6e656420 696e7400  rt unsigned int.
 0210 656e635f 73746570 006c6976 65730067  enc_step.lives.g
 0220 616d655f 61637469 76650062 7269636b  ame_active.brick
 0230 73696e69 74005642 4c414e4b 5f414444  sinit.VBLANK_ADD
 0240 52006261 6c6c5f70 6f73006d 61696e00  R.ball_pos.main.
 0250 70616464 6c655f70 6f73006c 6f6e6720  paddle_pos.long 
 0260 6c6f6e67 20756e73 69676e65 6420696e  long unsigned in
 0270 7400696e 69745f72 6f756e64 00647261  t.init_round.dra
 0280 775f6261 6c6c006e 65777661 6c006c6f  w_ball.newval.lo
 0290 6e67206c 6f6e6720 696e7400 7372632f  ng long int.src/
 02a0 6d61696e 2e630065 6e635f63 6f756e74  main.c.enc_count
 02b0 00647261 775f7061 64646c65 0073686f  .draw_paddle.sho
 02c0 72742069 6e740053 53454700 62616c6c  rt int.SSEG.ball
 02d0 5f76656c 6f636974 7900656e 635f4953  _velocity.enc_IS
 02e0 52006c6f 6e672064 6f75626c 65006472  R.long double.dr
 02f0 61775f62 7269636b 73005f5f 64697673  aw_bricks.__divs
 0300 69330076 6563746f 72325f62 00636f6c  i3.vector2_b.col
 0310 6f727661 6c002f6d 6e742f63 2f557365  orval./mnt/c/Use
 0320 72732f4a 616b6520 416c742f 736f7572  rs/Jake Alt/sour
 0330 63652f63 616c706f 6c792f63 70653233  ce/calpoly/cpe23
 0340 332f7072 6f677261 6d732f62 7269636b  3/programs/brick
 0350 62726561 6b657200 70616464 6c655f78  breaker.paddle_x
 0360 5f6f6c64 00564741 5f414444 52007461  _old.VGA_ADDR.ta
 0370 72676574 786c0062 7269636b 61727200  rgetxl.brickarr.
 0380 636f6c6f 72006e75 6d626572 00737263  color.number.src
 0390 2f677261 70686963 732e6300 636f6c6f  /graphics.c.colo
 03a0 726d6173 6b006772 61706869 6300726f  rmask.graphic.ro
 03b0 774f6666 73657400 4e554d53 5f4d4544  wOffset.NUMS_MED
 03c0 00616464 72657373 00677261 70686963  .address.graphic
 03d0 72004e55 4d535f58 4c006472 61775f6e  r.NUMS_XL.draw_n
 03e0 756d5f6d 65640074 61726765 74787200  um_med.targetxr.
 03f0 4e554d53 5f534d41 4c4c0064 7261775f  NUMS_SMALL.draw_
 0400 6e756d5f 736d616c 6c006469 67697400  num_small.digit.
 0410 62616c6c 5f706f73 5f6f6c64 00677261  ball_pos_old.gra
 0420 70686963 6c002e2e 2f2e2e2f 2e2e2f2e  phicl.../../../.
 0430 2f726973 63762d67 63632f6c 69626763  /riscv-gcc/libgc
 0440 632f636f 6e666967 2f726973 63762f64  c/config/riscv/d
 0450 69762e53 002f686f 6d652f6a 616b6561  iv.S./home/jakea
 0460 6c742f72 69736376 2f726973 63762d67  lt/riscv/riscv-g
 0470 6e752d74 6f6f6c63 6861696e 2f627569  nu-toolchain/bui
 0480 6c642d67 63632d6e 65776c69 622d7374  ld-gcc-newlib-st
 0490 61676532 2f726973 63763332 2d756e6b  age2/riscv32-unk
 04a0 6e6f776e 2d656c66 2f6c6962 67636300  nown-elf/libgcc.
Contents of section .debug_loc:
 0000 20030000 28030000 01005a28 03000064   ...(.....Z(...d
 0010 06000001 005f0000 00000000 00002003  ....._........ .
 0020 00003c03 00000100 5c3c0300 00a40400  ..<.....\<......
 0030 000400f3 015c9fa4 040000e8 04000001  .....\..........
 0040 005ce804 00006406 00000400 f3015c9f  .\....d.......\.
 0050 00000000 00000000 20030000 e8030000  ........ .......
 0060 01005de8 03000024 04000004 00f3015d  ..]....$.......]
 0070 9f240400 00240600 0001005d 24060000  .$...$.....]$...
 0080 50060000 0400f301 5d9f5006 00006406  P.......].P...d.
 0090 00000100 5d000000 00000000 00e80300  ....]...........
 00a0 00240400 0001005a 00000000 00000000  .$.....Z........
 00b0 2c030000 3c030000 01005ca4 040000e8  ,...<.....\.....
 00c0 04000001 005ce804 00000405 00000400  .....\..........
 00d0 f3015c9f 50060000 64060000 0400f301  ..\.P...d.......
 00e0 5c9f0000 00000000 00002c03 00003c03  \.........,...<.
 00f0 00000100 5ba40400 00040500 0001005b  ....[..........[
 0100 50060000 64060000 01005b00 00000000  P...d.....[.....
 0110 0000002c 0300003c 03000001 005fa404  ...,...<....._..
 0120 00000405 00000100 5f500600 00640600  ........_P...d..
 0130 0001005f 00000000 00000000 3c030000  ..._........<...
 0140 70030000 04000aa0 029f2404 00004804  p.........$...H.
 0150 00000400 0aa0029f 04050000 14050000  ................
 0160 04000aa0 029f0000 00000000 00003c03  ..............<.
 0170 00007003 00000300 083f9f24 04000048  ..p......?.$...H
 0180 04000003 00083f9f 04050000 14050000  ......?.........
 0190 0300083f 9f000000 00000000 003c0300  ...?.........<..
 01a0 00700300 0001005b 24040000 48040000  .p.....[$...H...
 01b0 01005b04 05000014 05000001 005b0000  ..[..........[..
 01c0 00000000 00003c03 00007003 00000100  ......<...p.....
 01d0 5f240400 00480400 0001005f 04050000  _$...H....._....
 01e0 14050000 01005f00 00000000 00000068  ......_........h
 01f0 03000070 03000001 005f0405 00001405  ...p....._......
 0200 00000100 5f000000 00000000 00680300  ...._........h..
 0210 00700300 00030008 3f9f0405 00001405  .p......?.......
 0220 00000300 083f9f00 00000000 00000068  .....?.........h
 0230 03000070 03000004 000aa002 9f040500  ...p............
 0240 00140500 0004000a a0029f00 00000000  ................
 0250 00000068 03000070 03000001 005b0405  ...h...p.....[..
 0260 00001405 00000100 5b000000 00000000  ........[.......
 0270 00700300 00e80300 0001005d 48040000  .p.........]H...
 0280 a4040000 01005d14 05000024 06000001  ......]....$....
 0290 005d2406 00005006 00000400 f3015d9f  .]$...P.......].
 02a0 00000000 00000000 70030000 e8030000  ........p.......
 02b0 01005b48 040000a4 04000001 005b1405  ..[H.........[..
 02c0 00005006 00000100 5b000000 00000000  ..P.....[.......
 02d0 00700300 00e80300 0001005f 48040000  .p........._H...
 02e0 a4040000 01005f14 05000050 06000001  ......_....P....
 02f0 005f0000 00000000 00007403 00009403  ._........t.....
 0300 00000500 817d401b 9f980300 00a80300  .....}@.........
 0310 00050080 03401b9f c4030000 e8030000  .....@..........
 0320 01005e48 04000058 04000005 00800340  ..^H...X.......@
 0330 1b9f5804 00006404 00000500 8000401b  ..X...d.......@.
 0340 9f140500 00780500 0001005e 78050000  .....x.....^x...
 0350 84050000 0c007c00 4f263f1a 7c002234  ......|.O&?.|."4
 0360 269f8405 0000a005 00000500 817d401b  &............}@.
 0370 9fa00500 00ac0500 00050081 00401b9f  .............@..
 0380 ec050000 1c060000 01005e00 00000000  ..........^.....
 0390 00000090 030000a8 03000001 005cc403  .............\..
 03a0 0000c803 00000900 80003426 351c321b  ..........4&5.2.
 03b0 9fcc0300 00e80300 00090081 00342633  .............4&3
 03c0 1c321b9f 48040000 80040000 01005c14  .2..H.........\.
 03d0 05000030 05000009 00800034 26351c32  ...0.......4&5.2
 03e0 1b9f8405 0000ec05 00000100 5cec0500  ............\...
 03f0 00f80500 00090081 00342633 1c321b9f  .........4&3.2..
 0400 00000000 00000000 6c000000 70000000  ........l...p...
 0410 01005a70 0000007c 00000004 00f3015a  ..Zp...|.......Z
 0420 9f000000 00000000 00000000 00200000  ............. ..
 0430 0001005c 20000000 38000000 0400f301  ...\ ...8.......
 0440 5c9f3800 00004000 00000100 5c400000  \.8...@.....\@..
 0450 005c0000 0003007c 7d9f5c00 00006c00  .\.....|}.\...l.
 0460 00000400 f3015c9f 00000000 00000000  ......\.........
 0470 00000000 08000000 01005d08 0000006c  ..........]....l
 0480 00000003 007d039f 00000000 00000000  .....}..........
 0490 2c000000 34000000 01005a5c 00000068  ,...4.....Z\...h
 04a0 00000001 005a0000 00000000 00002c00  .....Z........,.
 04b0 00003400 00000400 f3015c9f 5c000000  ..4.......\.\...
 04c0 68000000 0400f301 5c9f0000 00000000  h.......\.......
 04d0 00002c00 00003400 00000300 7d039f5c  ..,...4.....}..\
 04e0 00000068 00000003 007d039f 00000000  ...h.....}......
 04f0 00000000 2c000000 34000000 01005b5c  ....,...4.....[\
 0500 00000068 00000001 005b0000 00000000  ...h.....[......
 0510 00007c00 0000d800 00000100 5cd80000  ..|.........\...
 0520 00080100 000400f3 015c9f00 00000000  .........\......
 0530 000000f4 00000004 01000001 005a0000  .............Z..
 0540 00000000 0000f400 00000401 00000400  ................
 0550 f3015c9f 00000000 00000000 f4000000  ..\.............
 0560 04010000 01005b00 00000000 00000008  ......[.........
 0570 01000020 01000001 005a2001 00007801  ... .....Z ...x.
 0580 00000100 5f780100 00880100 000400f3  ...._x..........
 0590 015a9f88 010000d4 01000001 005fd401  .Z..........._..
 05a0 0000e401 00000400 f3015a9f e4010000  ..........Z.....
 05b0 48020000 01005f48 02000054 02000004  H....._H...T....
 05c0 00f3015a 9f540200 00ac0200 0001005f  ...Z.T........._
 05d0 ac020000 20030000 0400f301 5a9f0000  .... .......Z...
 05e0 00000000 00000801 00008401 00000100  ................
 05f0 5c840100 00880100 000400f3 015c9f88  \............\..
 0600 010000f8 02000001 005cf802 00002003  .........\.... .
 0610 00000400 f3015c9f 00000000 00000000  ......\.........
 0620 0c010000 30010000 0500817d 401b9f34  ....0......}@..4
 0630 01000044 01000005 00800340 1b9f6001  ...D.......@..`.
 0640 00008401 00000100 5e840100 00880100  ........^.......
 0650 000c0081 004f263f 1a810022 34269f88  .....O&?..."4&..
 0660 01000098 01000005 00800340 1b9f9801  ...........@....
 0670 0000a401 00000500 8000401b 9fe40100  ..........@.....
 0680 00540200 0001005e 54020000 70020000  .T.....^T...p...
 0690 0500817d 401b9f70 0200007c 02000005  ...}@..p...|....
 06a0 00810040 1b9fbc02 0000ec02 00000100  ...@............
 06b0 5eec0200 00200300 000c0081 004f263f  ^.... .......O&?
 06c0 1a810022 34269f00 00000000 0000002c  ..."4&.........,
 06d0 01000044 01000001 005d6001 00006401  ...D.....]`...d.
 06e0 00000900 80003426 351c321b 9f680100  ......4&5.2..h..
 06f0 00840100 00090080 00342633 1c321b9f  .........4&3.2..
 0700 88010000 c0010000 01005de4 01000000  ..........].....
 0710 02000009 00800034 26351c32 1b9f5402  .......4&5.2..T.
 0720 0000bc02 00000100 5dbc0200 00c80200  ........].......
 0730 00090080 00342633 1c321b9f 00000000  .....4&3.2......
 0740 00000000 44170000 48170000 01005a48  ....D...H.....ZH
 0750 1700006c 17000001 006a6c17 00007017  ...l.....jl...p.
 0760 00000100 5a701700 00781700 0001006a  ....Zp...x.....j
 0770 00000000 00000000 58170000 5c170000  ........X...\...
 0780 0200309f 00000000 00000000 e0090000  ..0.............
 0790 e3090000 24007a00 3a1b3a14 141b1e1c  ....$.z.:.:.....
 07a0 34247900 08641b3a 14141b1e 1c382421  4$y..d.:.....8$!
 07b0 83003a14 141b1e1c 219f0000 00000000  ..:.....!.......
 07c0 00008407 0000c407 00000100 5ef40700  ............^...
 07d0 005c0800 0001005e 00000000 00000000  .\.....^........
 07e0 9c070000 b4070000 01005fb4 070000c0  .........._.....
 07f0 07000005 00031418 0000c007 0000c407  ................
 0800 00000600 7e002033 1a9ff407 00005c08  ....~. 3......\.
 0810 00000100 5f000000 00000000 002c0600  ...._........,..
 0820 00780600 0001005a 78060000 84060000  .x.....Zx.......
 0830 01005884 0600002c 07000004 00f3015a  ..X....,.......Z
 0840 9f000000 00000000 002c0600 00840600  .........,......
 0850 00050011 9080409f 84060000 94060000  ......@.........
 0860 04007980 7e9f9806 0000b006 00000100  ..y.~...........
 0870 5fb00600 00b80600 0003007f 049fb806  _...............
 0880 0000d006 00000100 5fd00600 00d80600  ........_.......
 0890 0003007f 049fd806 0000e006 00000100  ................
 08a0 5ff00600 00f80600 00040079 801e9ff8  _..........y....
 08b0 06000008 07000004 0079807e 9f140700  .........y.~....
 08c0 00180700 0001005f 18070000 20070000  ......._.... ...
 08d0 03007f04 9f200700 00240700 0001005f  ..... ...$....._
 08e0 24070000 2c070000 03007f04 9f000000  $...,...........
 08f0 00000000 002c0600 00840600 00020030  .....,.........0
 0900 9f000000 00000000 00840600 00940600  ................
 0910 00020030 9f980600 00e00600 00010061  ...0...........a
 0920 e4060000 2c070000 01006100 00000000  ....,.....a.....
 0930 000000a8 060000b8 06000006 007d0078  .............}.x
 0940 001c9fb8 060000bc 06000008 007d0078  .............}.x
 0950 001c2301 9fbc0600 00d80600 0006007d  ..#............}
 0960 0078001c 9fd80600 00dc0600 0008007d  .x.............}
 0970 0078001c 23019fdc 060000e0 06000006  .x..#...........
 0980 007d0078 001c9f14 0700002c 07000006  .}.x.......,....
 0990 007d0078 001c9f00 00000000 000000fc  .}.x............
 09a0 05000014 06000005 00118c80 409f1406  ............@...
 09b0 00001806 00000100 5f180600 00240600  ........_....$..
 09c0 0004007f 9c019f24 0600002c 06000001  .......$...,....
 09d0 005f0000 00000000 0000fc05 00001406  ._..............
 09e0 00000200 309f0000 00000000 0000e405  ....0...........
 09f0 0000ec05 00000500 11808040 9fec0500  ...........@....
 0a00 00fc0500 0001005f 00000000 00000000  ......._........
 0a10 60040000 6c040000 03007b7e 9f6c0400  `...l.....{~.l..
 0a20 00700400 0001005b 14050000 20050000  .p.....[.... ...
 0a30 0300807e 9f200500 00240500 00010060  ...~. ...$.....`
 0a40 00000000 00000000 a8040000 ac040000  ................
 0a50 03007c02 9fac0400 00b00400 0001005c  ..|............\
 0a60 74050000 78050000 03007c02 9f780500  t...x.....|..x..
 0a70 007c0500 0001005c 00000000 00000000  .|.....\........
 0a80 7c040000 bc040000 01005f00 00000000  |........._.....
 0a90 000000c0 040000f0 04000001 005e0000  .............^..
 0aa0 00000000 00003005 0000a005 00000100  ......0.........
 0ab0 5ee00500 00e40500 0001005e 00000000  ^..........^....
 0ac0 00000000 8c050000 e0050000 01005d00  ..............].
 0ad0 00000000 0000009c 030000a4 0300000b  ................
 0ae0 007f0036 24322440 40241c9f b4030000  ...6$2$@@$......
 0af0 c0030000 01005fc0 030000cc 03000004  ......_.........
 0b00 007f8002 9fcc0300 00d80300 0004007f  ................
 0b10 80049fd8 030000e4 03000004 007f8006  ................
 0b20 9fe40300 00f00300 0004007f 80089ff0  ................
 0b30 030000f8 03000004 007f800a 9f0c0400  ................
 0b40 00180400 0001005f 18040000 24040000  ......._....$...
 0b50 04007f80 029f2404 00003004 00000400  ......$...0.....
 0b60 7f80049f 30040000 3c040000 04007f80  ....0...<.......
 0b70 069f3c04 00004804 00000400 7f80089f  ..<...H.........
 0b80 48040000 4c040000 04007f80 0a9f0000  H...L...........
 0b90 00000000 0000b403 0000b803 00000200  ................
 0ba0 309fb803 0000bc03 00000200 319fbc03  0...........1...
 0bb0 0000c003 00000200 329fc003 0000c403  ........2.......
 0bc0 00000200 309fc403 0000c803 00000200  ....0...........
 0bd0 319fc803 0000cc03 00000200 329fcc03  1...........2...
 0be0 0000d003 00000200 309fd003 0000d403  ........0.......
 0bf0 00000200 319fd403 0000d803 00000200  ....1...........
 0c00 329fd803 0000dc03 00000200 309fdc03  2...........0...
 0c10 0000e003 00000200 319fe003 0000e403  ........1.......
 0c20 00000200 329fe403 0000e803 00000200  ....2...........
 0c30 309fe803 0000ec03 00000200 319fec03  0...........1...
 0c40 0000f003 00000200 329ff003 00005804  ........2.....X.
 0c50 00000200 339f0000 00000000 00000c04  ....3...........
 0c60 00001004 00000200 309f1004 00001404  ........0.......
 0c70 00000200 319f1404 00001804 00000200  ....1...........
 0c80 329f1804 00001c04 00000200 309f1c04  2...........0...
 0c90 00002004 00000200 319f2004 00002404  .. .....1. ...$.
 0ca0 00000200 329f2404 00002804 00000200  ....2.$...(.....
 0cb0 309f2804 00002c04 00000200 319f2c04  0.(...,.....1.,.
 0cc0 00003004 00000200 329f3004 00003404  ..0.....2.0...4.
 0cd0 00000200 309f3404 00003804 00000200  ....0.4...8.....
 0ce0 319f3804 00003c04 00000200 329f3c04  1.8...<.....2.<.
 0cf0 00004004 00000200 309f4004 00004404  ..@.....0.@...D.
 0d00 00000200 319f4404 00004804 00000200  ....1.D...H.....
 0d10 329f4804 00005804 00000200 339f0000  2.H...X.....3...
 0d20 00000000 0000fc02 00002003 00000100  .......... .....
 0d30 5a200300 008c0300 000400f3 015a9f00  Z ...........Z..
 0d40 00000000 000000fc 0200003c 03000001  ...........<....
 0d50 005b0000 00000000 0000fc02 00003c03  .[............<.
 0d60 00000300 08969f00 00000000 0000003c  ...............<
 0d70 03000060 03000002 00309f60 0300006c  ...`.....0.`...l
 0d80 03000001 005b6c03 00008c03 00000100  .....[l.........
 0d90 5f000000 00000000 003c0300 00780300  _........<...x..
 0da0 00020030 9f780300 008c0300 0001005e  ...0.x.........^
 0db0 00000000 00000000 6c010000 7c010000  ........l...|...
 0dc0 01005a7c 010000fc 02000004 00f3015a  ..Z|...........Z
 0dd0 9f000000 00000000 006c0100 004c0200  .........l...L..
 0de0 0001005b 4c020000 b0020000 0400f301  ...[L...........
 0df0 5b9fb002 0000b802 00000700 f3015b08  [.............[.
 0e00 401c9fb8 020000bc 02000007 00f3015b  @..............[
 0e10 08801c9f bc020000 c0020000 0700f301  ................
 0e20 5b08c01c 9fc00200 00c40200 000800f3  [...............
 0e30 015b0a00 011c9fc4 020000c8 02000008  .[..............
 0e40 00f3015b 0a40011c 9fc80200 00cc0200  ...[.@..........
 0e50 000800f3 015b0a80 011c9fcc 020000fc  .....[..........
 0e60 02000008 00f3015b 0ac0011c 9f000000  .......[........
 0e70 00000000 00380200 00b00200 00030008  .....8..........
 0e80 3c9fb002 0000b802 00000300 08329fb8  <............2..
 0e90 020000bc 02000003 0008289f bc020000  ..........(.....
 0ea0 c0020000 02004e9f c0020000 c4020000  ......N.........
 0eb0 0200449f c4020000 c8020000 02003a9f  ..D...........:.
 0ec0 c8020000 cc020000 0200309f cc020000  ..........0.....
 0ed0 fc020000 030009f6 9f000000 00000000  ................
 0ee0 00380200 00400200 002800f3 015a3426  .8...@...(...Z4&
 0ef0 3f1a03e8 1f000022 940108ff 1a3a24f3  ?......".....:$.
 0f00 015a3826 3f1a03e8 1f000022 940108ff  .Z8&?......"....
 0f10 1a219f40 0200007c 02000006 007c0076  .!.@...|.....|.v
 0f20 001a9f7c 020000b0 02000001 0056b002  ...|.........V..
 0f30 0000b802 00002c00 f3015a3f 1a03de1f  ......,...Z?....
 0f40 00002294 0108ff1a 4424f301 5a38263f  ..".....D$..Z8&?
 0f50 1a03de1f 00002294 0108ff1a 21770021  ......".....!w.!
 0f60 7c001a9f b8020000 bc020000 2c00f301  |...........,...
 0f70 5a3f1a03 d41f0000 22940108 ff1a4424  Z?......".....D$
 0f80 f3015a38 263f1a03 d41f0000 22940108  ..Z8&?......"...
 0f90 ff1a2175 00217c00 1a9fbc02 0000c002  ..!u.!|.........
 0fa0 00002c00 f3015a3f 1a03ca1f 00002294  ..,...Z?......".
 0fb0 0108ff1a 4424f301 5a38263f 1a03ca1f  ....D$..Z8&?....
 0fc0 00002294 0108ff1a 218f0021 7c001a9f  ..".....!..!|...
 0fd0 c0020000 c4020000 1b00f301 5a34263f  ............Z4&?
 0fe0 1a03c01f 00002294 0108ff1a 3a248e00  ......".....:$..
 0ff0 217c001a 9fc40200 00c80200 000e008a  !|..............
 1000 00442483 00218d00 217c001a 9fc80200  .D$..!..!|......
 1010 00d00200 000e0089 003a2482 00217900  .........:$..!y.
 1020 217c001a 9fd00200 00d40200 001e0089  !|..............
 1030 003a24f3 015a3826 3f1a03ac 1f000022  .:$..Z8&?......"
 1040 940108ff 1a218200 217c001a 9fd40200  .....!..!|......
 1050 00f00200 002e0089 003a24f3 015a3f1a  .........:$..Z?.
 1060 03ac1f00 00229401 08ff1a44 2421f301  .....".....D$!..
 1070 5a38263f 1a03ac1f 00002294 0108ff1a  Z8&?......".....
 1080 217c001a 9ff00200 00fc0200 003e00f3  !|...........>..
 1090 015a3426 3f1a03ac 1f000022 940108ff  .Z4&?......"....
 10a0 1a3a24f3 015a3f1a 03ac1f00 00229401  .:$..Z?......"..
 10b0 08ff1a44 2421f301 5a38263f 1a03ac1f  ...D$!..Z8&?....
 10c0 00002294 0108ff1a 217c001a 9f000000  ..".....!|......
 10d0 00000000 00000000 00240000 0001005a  .........$.....Z
 10e0 24000000 6c010000 0400f301 5a9f0000  $...l.......Z...
 10f0 00000000 00000000 0000f800 00000100  ................
 1100 5bf80000 00000100 000400f3 015b9f00  [............[..
 1110 00000000 00000000 01000024 01000003  ...........$....
 1120 0008289f 24010000 28010000 02004e9f  ..(.$...(.....N.
 1130 28010000 2c010000 0200449f 2c010000  (...,.....D.,...
 1140 30010000 02003a9f 30010000 44010000  0.....:.0...D...
 1150 0200309f 44010000 6c010000 030009f6  ..0.D...l.......
 1160 9f000000 00000000 00000100 00240100  .............$..
 1170 005000f3 015a3f1a 03a01f00 00229401  .P...Z?......"..
 1180 08ff1a48 24f3015a 38263f1a 03a01f00  ...H$..Z8&?.....
 1190 00229401 08ff1a38 2421f301 5a34263f  .".....8$!..Z4&?
 11a0 1a03a01f 00002294 0108ff1a 402421f3  ......".....@$!.
 11b0 015a3c26 3f1a03a0 1f000022 940108ff  .Z<&?......"....
 11c0 1a219f24 01000028 01000050 00f3015a  .!.$...(...P...Z
 11d0 3f1a0396 1f000022 940108ff 1a4824f3  ?......".....H$.
 11e0 015a3826 3f1a0396 1f000022 940108ff  .Z8&?......"....
 11f0 1a382421 f3015a34 263f1a03 961f0000  .8$!..Z4&?......
 1200 22940108 ff1a4024 21f3015a 3c263f1a  ".....@$!..Z<&?.
 1210 03961f00 00229401 08ff1a21 9f280100  .....".....!.(..
 1220 002c0100 005000f3 015a3f1a 038c1f00  .,...P...Z?.....
 1230 00229401 08ff1a48 24f3015a 38263f1a  .".....H$..Z8&?.
 1240 038c1f00 00229401 08ff1a38 2421f301  .....".....8$!..
 1250 5a34263f 1a038c1f 00002294 0108ff1a  Z4&?......".....
 1260 402421f3 015a3c26 3f1a038c 1f000022  @$!..Z<&?......"
 1270 940108ff 1a219f2c 01000030 01000050  .....!.,...0...P
 1280 00f3015a 3f1a0382 1f000022 940108ff  ...Z?......"....
 1290 1a4824f3 015a3826 3f1a0382 1f000022  .H$..Z8&?......"
 12a0 940108ff 1a382421 f3015a34 263f1a03  .....8$!..Z4&?..
 12b0 821f0000 22940108 ff1a4024 21f3015a  ....".....@$!..Z
 12c0 3c263f1a 03821f00 00229401 08ff1a21  <&?......".....!
 12d0 9f300100 006c0100 005000f3 015a3f1a  .0...l...P...Z?.
 12e0 03781f00 00229401 08ff1a48 24f3015a  .x...".....H$..Z
 12f0 38263f1a 03781f00 00229401 08ff1a38  8&?..x...".....8
 1300 2421f301 5a34263f 1a03781f 00002294  $!..Z4&?..x...".
 1310 0108ff1a 402421f3 015a3c26 3f1a0378  ....@$!..Z<&?..x
 1320 1f000022 940108ff 1a219f00 00000000  ...".....!......
 1330 000000                               ...             
Contents of section .debug_ranges:
 0000 2c000000 34000000 5c000000 68000000  ,...4...\...h...
 0010 00000000 00000000 24030000 2c030000  ........$...,...
 0020 2c030000 3c030000 a4040000 04050000  ,...<...........
 0030 50060000 64060000 00000000 00000000  P...d...........
 0040 3c030000 70030000 24040000 48040000  <...p...$...H...
 0050 04050000 14050000 00000000 00000000  ................
 0060 68030000 70030000 04050000 14050000  h...p...........
 0070 00000000 00000000 70030000 e8030000  ........p.......
 0080 48040000 a4040000 14050000 50060000  H...........P...
 0090 00000000 00000000 28090000 78090000  ........(...x...
 00a0 7c090000 80090000 00000000 00000000  |...............
 00b0 b0160000 c4160000 d0160000 d8160000  ................
 00c0 e0160000 e4170000 00000000 00000000  ................
 00d0 b0160000 c4160000 d0160000 d8160000  ................
 00e0 84170000 c8170000 00000000 00000000  ................
 00f0 58170000 58170000 5c170000 6c170000  X...X...\...l...
 0100 00000000 00000000 24070000 700a0000  ........$...p...
 0110 40160000 e4170000 00000000 00000000  @...............
 0120 00000000 10000000 14000000 24000000  ............$...
 0130 2c000000 44000000 58000000 7c000000  ,...D...X...|...
 0140 80000000 94000000 98000000 00010000  ................
 0150 00010000 34010000 38010000 44010000  ....4...8...D...
 0160 00000000 00000000 00000000 10000000  ................
 0170 14000000 24000000 2c000000 44000000  ....$...,...D...
 0180 58000000 7c000000 80000000 94000000  X...|...........
 0190 98000000 00010000 00010000 24010000  ............$...
 01a0 24010000 28010000 28010000 2c010000  $...(...(...,...
 01b0 2c010000 30010000 30010000 34010000  ,...0...0...4...
 01c0 38010000 44010000 00000000 00000000  8...D...........
 01d0 6c010000 7c010000 80010000 8c010000  l...|...........
 01e0 90010000 9c010000 a0010000 a8010000  ................
 01f0 b4010000 d4010000 e8010000 10020000  ................
 0200 14020000 38020000 38020000 84020000  ....8...8.......
 0210 88020000 cc020000 00000000 00000000  ................
 0220 6c010000 7c010000 80010000 8c010000  l...|...........
 0230 90010000 9c010000 a0010000 a8010000  ................
 0240 b4010000 d4010000 e8010000 10020000  ................
 0250 14020000 38020000 38020000 84020000  ....8...8.......
 0260 88020000 b0020000 b0020000 b8020000  ................
 0270 b8020000 bc020000 bc020000 c0020000  ................
 0280 c0020000 c4020000 c4020000 c8020000  ................
 0290 c8020000 cc020000 00000000 00000000  ................
 02a0 fc020000 04030000 10030000 7c030000  ............|...
 02b0 00000000 00000000 b4030000 c0030000  ................
 02c0 c0030000 cc030000 cc030000 d8030000  ................
 02d0 d8030000 e4030000 e4030000 f0030000  ................
 02e0 00000000 00000000 f8030000 fc030000  ................
 02f0 0c040000 48040000 00000000 00000000  ....H...........
 0300 f8030000 fc030000 0c040000 18040000  ................
 0310 18040000 24040000 24040000 30040000  ....$...$...0...
 0320 30040000 3c040000 3c040000 48040000  0...<...<...H...
 0330 00000000 00000000 60040000 68040000  ........`...h...
 0340 78040000 a4040000 00000000 00000000  x...............
 0350 14050000 1c050000 2c050000 70050000  ........,...p...
 0360 00000000 00000000 80050000 dc050000  ................
 0370 e0050000 e4050000 00000000 00000000  ................
 0380 fc050000 fc050000 00060000 04060000  ................
 0390 08060000 28060000 00000000 00000000  ....(...........
 03a0 2c060000 2c060000 38060000 54060000  ,...,...8...T...
 03b0 58060000 5c060000 60060000 00070000  X...\...`.......
 03c0 14070000 2c070000 00000000 00000000  ....,...........
 03d0 38060000 50060000 58060000 5c060000  8...P...X...\...
 03e0 60060000 80060000 84060000 f0060000  `...............
 03f0 14070000 2c070000 00000000 00000000  ....,...........
 0400 3c060000 50060000 60060000 80060000  <...P...`.......
 0410 90060000 98060000 a8060000 e0060000  ................
 0420 14070000 2c070000 00000000 00000000  ....,...........
Contents of section .debug_frame:
 0000 0c000000 ffffffff 0300017c 010d0200  ...........|....
 0010 0c000000 00000000 c0000000 6c000000  ............l...
 0020 0c000000 00000000 2c010000 10000000  ........,.......
 0030 0c000000 00000000 3c010000 8c000000  ........<.......
 0040 0c000000 00000000 c8010000 18020000  ................
 0050 0c000000 00000000 e0030000 44030000  ............D...
 0060 0c000000 ffffffff 0300017c 010d0200  ...........|....
 0070 0c000000 60000000 24070000 4c000000  ....`...$...L...
 0080 30000000 60000000 70070000 ec000000  0...`...p.......
 0090 440e2044 8f05488e 04548c02 8b018d03  D. D..H..T......
 00a0 02480acb 44cc44cd 44ce44cf 440e0044  .H..D.D.D.D.D..D
 00b0 0b000000 0c000000 60000000 5c080000  ........`...\...
 00c0 5c000000 1c000000 60000000 b8080000  \.......`.......
 00d0 d4000000 440e104c 88028101 02b4c148  ....D..L.......H
 00e0 c8440e00 28000000 60000000 8c090000  .D..(...`.......
 00f0 e4000000 500e306c 81018802 89039204  ....P.0l........
 0100 93050284 c84cc144 c944d244 d3480e00  .....L.D.D.D.H..
 0110 2c000000 60000000 40160000 a4010000  ,...`...@.......
 0120 440e5074 81018802 89039204 93059406  D.Pt............
 0130 95079608 9709980a 990b9a0c 9b0d0000  ................
 0140 0c000000 ffffffff 0300017c 010d0200  ...........|....
 0150 3c000000 40010000 700a0000 6c010000  <...@...p...l...
 0160 540e3060 88019304 68890292 03960797  T.0`....h.......
 0170 08980968 95065494 0502a0c8 50c944d2  ...h..T.....P.D.
 0180 44d344d4 44d544d6 44d744d8 440e0000  D.D.D.D.D.D.D...
 0190 48000000 40010000 dc0b0000 90010000  H...@...........
 01a0 540e3054 88015098 09509203 990a9a0b  T.0T..P..P......
 01b0 74930494 05950696 0797086c 89020274  t..........l...t
 01c0 c80248c9 44d244d3 44d444d5 44d644d7  ..H.D.D.D.D.D.D.
 01d0 44d844d9 44da440e 00000000 0c000000  D.D.D.D.........
 01e0 40010000 6c0d0000 90000000 14000000  @...l...........
 01f0 40010000 fc0d0000 cc000000 440e1002  @...........D...
 0200 c40e0000 0c000000 40010000 c80e0000  ........@.......
 0210 8c010000 0c000000 40010000 54100000  ........@...T...
 0220 18000000 0c000000 40010000 6c100000  ........@...l...
 0230 30000000 24000000 40010000 9c100000  0...$...@.......
 0240 00010000 440e1048 89029203 60880102  ....D..H....`...
 0250 ac0ac844 c944d244 0e00440b           ...D.D.D..D.    

Disassembly of section .text.init:

00000000 <entry>:

.section .text.init
entry:

    #la gp, __gp
    la    sp, __sp-32   # set up the stack pointer, using a constant defined in the linker script.
   0:	auipc	sp,0x10
   4:	addi	sp,sp,-32 # ffe0 <__frame_dummy_init_array_entry+0xdd64>
  
    call _start		# use this if using C runtime, std c library
   8:	jal	ra,10 <_start>

0000000c <end>:
  
    #call  main          # call the main function if barebones assembly/C

end:
    j end               # loop when finished if there is no environment to return to.
   c:	j	c <end>

Disassembly of section .text:

00000010 <_start>:
      10:	auipc	gp,0x2
      14:	addi	gp,gp,-464 # 1e40 <__global_pointer$>
      18:	addi	a0,gp,1076 # 2274 <__FRAME_END__>
      1c:	addi	a2,gp,1076 # 2274 <__FRAME_END__>
      20:	sub	a2,a2,a0
      24:	li	a1,0
      28:	jal	ra,130c <memset>
      2c:	auipc	a0,0x1
      30:	addi	a0,a0,1244 # 1508 <atexit>
      34:	beqz	a0,44 <_start+0x34>
      38:	auipc	a0,0x1
      3c:	addi	a0,a0,1252 # 151c <__libc_fini_array>
      40:	jal	ra,1508 <atexit>
      44:	jal	ra,1280 <__libc_init_array>
      48:	lw	a0,0(sp)
      4c:	addi	a1,sp,4
      50:	li	a2,0
      54:	jal	ra,1640 <main>
      58:	j	1250 <exit>

0000005c <__do_global_dtors_aux>:
      5c:	lbu	a4,-1560(gp) # 1828 <completed.1>
      60:	bnez	a4,a0 <__do_global_dtors_aux+0x44>
      64:	addi	sp,sp,-16
      68:	sw	s0,8(sp)
      6c:	mv	s0,a5
      70:	sw	ra,12(sp)
      74:	li	a5,0
      78:	beqz	a5,88 <__do_global_dtors_aux+0x2c>
      7c:	addi	a0,gp,1076 # 2274 <__FRAME_END__>
      80:	auipc	ra,0x0
      84:	jalr	zero # 0 <entry>
      88:	li	a5,1
      8c:	lw	ra,12(sp)
      90:	sb	a5,-1560(gp) # 1828 <completed.1>
      94:	lw	s0,8(sp)
      98:	addi	sp,sp,16
      9c:	ret
      a0:	ret

000000a4 <frame_dummy>:
      a4:	li	a5,0
      a8:	beqz	a5,bc <frame_dummy+0x18>
      ac:	addi	a1,gp,-1556 # 182c <object.0>
      b0:	addi	a0,gp,1076 # 2274 <__FRAME_END__>
      b4:	auipc	t1,0x0
      b8:	jr	zero # 0 <entry>
      bc:	ret

000000c0 <check_wall_collision>:
#include "physics.h"
//#include "vector.h"
//#include "config.h"

void check_wall_collision(volatile vector2* ballpos, volatile vector2* velocity, int lwall_x, int rwall_x) {
	if (ballpos->x >= rwall_x - 3 && velocity->x > 0) {
      c0:	lw	a5,0(a0)
      c4:	addi	a3,a3,-3
      c8:	blt	a5,a3,f8 <check_wall_collision+0x38>
      cc:	lw	a5,0(a1)
      d0:	blez	a5,f8 <check_wall_collision+0x38>
		velocity->x = -velocity->x;
	} else if (ballpos->x <= lwall_x + 3 && velocity->x < 0) {
		velocity->x = -velocity->x;
      d4:	lw	a5,0(a1)
      d8:	neg	a5,a5
      dc:	sw	a5,0(a1)
	}
	if (ballpos->y <= 2 && velocity->y < 0)
      e0:	lw	a4,4(a0)
      e4:	li	a5,2
      e8:	blt	a5,a4,f4 <check_wall_collision+0x34>
      ec:	lw	a5,4(a1)
      f0:	bltz	a5,11c <check_wall_collision+0x5c>
	{
		velocity->y = -velocity->y;
	}
}
      f4:	ret
	} else if (ballpos->x <= lwall_x + 3 && velocity->x < 0) {
      f8:	lw	a5,0(a0)
      fc:	addi	a2,a2,3
     100:	blt	a2,a5,e0 <check_wall_collision+0x20>
     104:	lw	a5,0(a1)
     108:	bgez	a5,e0 <check_wall_collision+0x20>
		velocity->x = -velocity->x;
     10c:	lw	a5,0(a1)
     110:	neg	a5,a5
     114:	sw	a5,0(a1)
     118:	j	e0 <check_wall_collision+0x20>
		velocity->y = -velocity->y;
     11c:	lw	a5,4(a1)
     120:	neg	a5,a5
     124:	sw	a5,4(a1)
}
     128:	ret

0000012c <check_floor_collision>:
int check_floor_collision(volatile vector2* ballpos, int floor_y) {
	return (ballpos->y >= floor_y);
     12c:	lw	a0,4(a0)
     130:	slt	a0,a0,a1
}
     134:	xori	a0,a0,1
     138:	ret

0000013c <check_paddle_collision>:

void check_paddle_collision(volatile vector2* ballpos, volatile vector2* velocity, int paddle_x) {
	if (ballpos->y >= PADDLE_Y - 1 && ballpos->y <= PADDLE_Y + PADDLE_HEIGHT / 2) {
     13c:	lw	a4,4(a0)
     140:	li	a5,518
     144:	bge	a5,a4,1c4 <check_paddle_collision+0x88>
     148:	lw	a4,4(a0)
     14c:	li	a5,522
     150:	blt	a5,a4,1c4 <check_paddle_collision+0x88>
		if (XF_TO_ADDR(ballpos->x) >= paddle_x && XF_TO_ADDR(ballpos->x) < paddle_x + PADDLE_WIDTH && velocity->y > 0) {
     154:	lw	a5,0(a0)
     158:	srai	a5,a5,0x4
     15c:	blt	a5,a2,1c4 <check_paddle_collision+0x88>
     160:	lw	a5,0(a0)
     164:	addi	a4,a2,2
     168:	srai	a5,a5,0x4
     16c:	blt	a4,a5,1c4 <check_paddle_collision+0x88>
     170:	lw	a5,4(a1)
     174:	blez	a5,1c4 <check_paddle_collision+0x88>
			velocity->y = -velocity->y;
     178:	lw	a5,4(a1)
			velocity->x += (XF_TO_ADDR(ballpos->x) - paddle_x) - (PADDLE_WIDTH / 2);
			if (velocity->x > 3) velocity->x = 3;
     17c:	li	a4,3
			velocity->y = -velocity->y;
     180:	neg	a5,a5
     184:	sw	a5,4(a1)
			velocity->x += (XF_TO_ADDR(ballpos->x) - paddle_x) - (PADDLE_WIDTH / 2);
     188:	lw	a5,0(a0)
     18c:	lw	a3,0(a1)
     190:	srai	a5,a5,0x4
     194:	sub	a2,a5,a2
     198:	addi	a5,a2,-1
     19c:	add	a5,a5,a3
     1a0:	sw	a5,0(a1)
			if (velocity->x > 3) velocity->x = 3;
     1a4:	lw	a5,0(a1)
     1a8:	bge	a4,a5,1b4 <check_paddle_collision+0x78>
     1ac:	sw	a4,0(a1)
     1b0:	ret
			else if (velocity->x < -3) velocity->x = -3;
     1b4:	lw	a4,0(a1)
     1b8:	li	a5,-3
     1bc:	bge	a4,a5,1c4 <check_paddle_collision+0x88>
     1c0:	sw	a5,0(a1)
		}
	}
}
     1c4:	ret

000001c8 <check_brick_collision>:
int check_brick_collision(volatile vector2* ballpos, volatile vector2* velocity, char bricks[BRICKS_HEIGHT][BRICKS_WIDTH]) {
	// UP
	int targety = (BALL_TO_Y_MIN_P(ballpos) - 1) / BRICK_H_PX;
     1c8:	lw	a7,4(a0)
	int targetx = (XF_TO_ADDR(ballpos->x) - 4) / 2;
     1cc:	lw	a4,0(a0)
int check_brick_collision(volatile vector2* ballpos, volatile vector2* velocity, char bricks[BRICKS_HEIGHT][BRICKS_WIDTH]) {
     1d0:	mv	a5,a0
	if (velocity->y < 0 && targety >= 0 && targety < BRICKS_HEIGHT && targetx >= 0 && targetx < BRICKS_WIDTH && bricks[targety][targetx] != 0)
     1d4:	lw	a6,4(a1)
	int targetx = (XF_TO_ADDR(ballpos->x) - 4) / 2;
     1d8:	srai	a4,a4,0x4
     1dc:	addi	a0,a4,-4
     1e0:	srli	a3,a0,0x1f
     1e4:	add	a3,a3,a0
     1e8:	srai	a3,a3,0x1
	if (velocity->y < 0 && targety >= 0 && targety < BRICKS_HEIGHT && targetx >= 0 && targetx < BRICKS_WIDTH && bricks[targety][targetx] != 0)
     1ec:	bltz	a6,314 <check_brick_collision+0x14c>
		bricks[targety][targetx]--;
		velocity->y = -velocity->y;
		return 2;
	}
	// DOWN
	targety = (BALL_TO_Y_MAX_P(ballpos) + 1) / BRICK_H_PX;
     1f0:	lw	a6,4(a5)
	if (velocity->y > 0 && targety < BRICKS_HEIGHT && targetx >= 0 && targetx < BRICKS_WIDTH && bricks[targety][targetx] != 0)
     1f4:	lw	a0,4(a1)
     1f8:	blez	a0,204 <check_brick_collision+0x3c>
     1fc:	li	a0,284
     200:	bge	a0,a6,248 <check_brick_collision+0x80>
		bricks[targety][targetx]--;
		velocity->y = -velocity->y;
		return 2;
	}
	// LEFT
	targety = (ballpos->y) / BRICK_H_PX;
     204:	lw	a7,4(a5)
	targetx = (XF_TO_ADDR(ballpos->x) - 5) / 2;
     208:	lw	a6,0(a5)

	if (velocity->x < 0 && XF_TO_SUB_ADDR(ballpos->x) == 2 && targety < BRICKS_HEIGHT && targetx >= 0 && targetx < BRICKS_WIDTH && bricks[targety][targetx] != 0)
     20c:	lw	a3,0(a1)
	targety = (ballpos->y) / BRICK_H_PX;
     210:	srai	a4,a7,0x1f
     214:	andi	a4,a4,15
     218:	add	a4,a4,a7
     21c:	srai	a4,a4,0x4
	if (velocity->x < 0 && XF_TO_SUB_ADDR(ballpos->x) == 2 && targety < BRICKS_HEIGHT && targetx >= 0 && targetx < BRICKS_WIDTH && bricks[targety][targetx] != 0)
     220:	bltz	a3,2a4 <check_brick_collision+0xdc>
		bricks[targety][targetx]--;
		velocity->x = -velocity->x;
		return 2;
	}
	// RIGHT
	targetx = (XF_TO_ADDR(ballpos->x) - 3) / 2;
     224:	lw	a6,0(a5)
	if (velocity->x > 0 && XF_TO_SUB_ADDR(ballpos->x) == 14 && targety < BRICKS_HEIGHT && targetx >= 0 && targetx < BRICKS_WIDTH && bricks[targety][targetx] != 0)
     228:	lw	a3,0(a1)
	{
		bricks[targety][targetx]--;
		velocity->x = -velocity->x;
		return 2;
	}
	return 0;
     22c:	li	a0,0
	if (velocity->x > 0 && XF_TO_SUB_ADDR(ballpos->x) == 14 && targety < BRICKS_HEIGHT && targetx >= 0 && targetx < BRICKS_WIDTH && bricks[targety][targetx] != 0)
     230:	blez	a3,244 <check_brick_collision+0x7c>
     234:	lw	a5,0(a5)
     238:	li	a3,14
     23c:	andi	a5,a5,15
     240:	beq	a5,a3,37c <check_brick_collision+0x1b4>
}
     244:	ret
	if (velocity->y > 0 && targety < BRICKS_HEIGHT && targetx >= 0 && targetx < BRICKS_WIDTH && bricks[targety][targetx] != 0)
     248:	addi	a4,a4,-3
     24c:	li	a0,38
     250:	bltu	a0,a4,204 <check_brick_collision+0x3c>
	targety = (BALL_TO_Y_MAX_P(ballpos) + 1) / BRICK_H_PX;
     254:	addi	a6,a6,3
     258:	srai	a4,a6,0x1f
     25c:	andi	a4,a4,15
     260:	add	a6,a4,a6
     264:	srai	a6,a6,0x4
	if (velocity->y > 0 && targety < BRICKS_HEIGHT && targetx >= 0 && targetx < BRICKS_WIDTH && bricks[targety][targetx] != 0)
     268:	slli	a4,a6,0x2
     26c:	add	a4,a4,a6
     270:	slli	a4,a4,0x2
     274:	sub	a4,a4,a6
     278:	add	a4,a2,a4
     27c:	add	a3,a4,a3
     280:	lbu	a4,0(a3)
     284:	beqz	a4,204 <check_brick_collision+0x3c>
		bricks[targety][targetx]--;
     288:	addi	a4,a4,-1
     28c:	sb	a4,0(a3)
		velocity->y = -velocity->y;
     290:	lw	a5,4(a1)
		return 2;
     294:	li	a0,2
		velocity->y = -velocity->y;
     298:	neg	a5,a5
     29c:	sw	a5,4(a1)
		return 2;
     2a0:	ret
	if (velocity->x < 0 && XF_TO_SUB_ADDR(ballpos->x) == 2 && targety < BRICKS_HEIGHT && targetx >= 0 && targetx < BRICKS_WIDTH && bricks[targety][targetx] != 0)
     2a4:	lw	a0,0(a5)
     2a8:	li	a3,2
     2ac:	andi	a0,a0,15
     2b0:	bne	a0,a3,224 <check_brick_collision+0x5c>
     2b4:	li	a3,287
     2b8:	blt	a3,a7,224 <check_brick_collision+0x5c>
	targetx = (XF_TO_ADDR(ballpos->x) - 5) / 2;
     2bc:	srai	a6,a6,0x4
	if (velocity->x < 0 && XF_TO_SUB_ADDR(ballpos->x) == 2 && targety < BRICKS_HEIGHT && targetx >= 0 && targetx < BRICKS_WIDTH && bricks[targety][targetx] != 0)
     2c0:	addi	t1,a6,-4
     2c4:	li	a3,38
     2c8:	bltu	a3,t1,224 <check_brick_collision+0x5c>
     2cc:	slli	a3,a4,0x2
	targetx = (XF_TO_ADDR(ballpos->x) - 5) / 2;
     2d0:	addi	a6,a6,-5
	if (velocity->x < 0 && XF_TO_SUB_ADDR(ballpos->x) == 2 && targety < BRICKS_HEIGHT && targetx >= 0 && targetx < BRICKS_WIDTH && bricks[targety][targetx] != 0)
     2d4:	add	a3,a3,a4
	targetx = (XF_TO_ADDR(ballpos->x) - 5) / 2;
     2d8:	srli	t1,a6,0x1f
	if (velocity->x < 0 && XF_TO_SUB_ADDR(ballpos->x) == 2 && targety < BRICKS_HEIGHT && targetx >= 0 && targetx < BRICKS_WIDTH && bricks[targety][targetx] != 0)
     2dc:	slli	a3,a3,0x2
	targetx = (XF_TO_ADDR(ballpos->x) - 5) / 2;
     2e0:	add	a6,t1,a6
	if (velocity->x < 0 && XF_TO_SUB_ADDR(ballpos->x) == 2 && targety < BRICKS_HEIGHT && targetx >= 0 && targetx < BRICKS_WIDTH && bricks[targety][targetx] != 0)
     2e4:	sub	a3,a3,a4
	targetx = (XF_TO_ADDR(ballpos->x) - 5) / 2;
     2e8:	srai	a6,a6,0x1
	if (velocity->x < 0 && XF_TO_SUB_ADDR(ballpos->x) == 2 && targety < BRICKS_HEIGHT && targetx >= 0 && targetx < BRICKS_WIDTH && bricks[targety][targetx] != 0)
     2ec:	add	a3,a2,a3
     2f0:	add	a3,a3,a6
     2f4:	lbu	a6,0(a3)
     2f8:	beqz	a6,224 <check_brick_collision+0x5c>
		bricks[targety][targetx]--;
     2fc:	addi	a6,a6,-1
     300:	sb	a6,0(a3)
		velocity->x = -velocity->x;
     304:	lw	a5,0(a1)
     308:	neg	a5,a5
     30c:	sw	a5,0(a1)
		return 2;
     310:	ret
	if (velocity->y < 0 && targety >= 0 && targety < BRICKS_HEIGHT && targetx >= 0 && targetx < BRICKS_WIDTH && bricks[targety][targetx] != 0)
     314:	addi	a0,a7,12
     318:	li	a6,302
     31c:	bltu	a6,a0,1f0 <check_brick_collision+0x28>
     320:	addi	a0,a4,-3
     324:	li	a6,38
     328:	bltu	a6,a0,1f0 <check_brick_collision+0x28>
	int targety = (BALL_TO_Y_MIN_P(ballpos) - 1) / BRICK_H_PX;
     32c:	addi	a7,a7,-3
     330:	srai	a0,a7,0x1f
     334:	andi	a0,a0,15
     338:	add	a7,a0,a7
     33c:	srai	a7,a7,0x4
	if (velocity->y < 0 && targety >= 0 && targety < BRICKS_HEIGHT && targetx >= 0 && targetx < BRICKS_WIDTH && bricks[targety][targetx] != 0)
     340:	slli	a0,a7,0x2
     344:	add	a0,a0,a7
     348:	slli	a0,a0,0x2
     34c:	sub	a0,a0,a7
     350:	add	a0,a2,a0
     354:	add	a0,a0,a3
     358:	lbu	a6,0(a0)
     35c:	beqz	a6,1f0 <check_brick_collision+0x28>
		bricks[targety][targetx]--;
     360:	addi	a6,a6,-1
     364:	sb	a6,0(a0)
		velocity->y = -velocity->y;
     368:	lw	a5,4(a1)
		return 2;
     36c:	li	a0,2
		velocity->y = -velocity->y;
     370:	neg	a5,a5
     374:	sw	a5,4(a1)
		return 2;
     378:	ret
	if (velocity->x > 0 && XF_TO_SUB_ADDR(ballpos->x) == 14 && targety < BRICKS_HEIGHT && targetx >= 0 && targetx < BRICKS_WIDTH && bricks[targety][targetx] != 0)
     37c:	li	a5,287
     380:	blt	a5,a7,244 <check_brick_collision+0x7c>
	targetx = (XF_TO_ADDR(ballpos->x) - 3) / 2;
     384:	srai	a6,a6,0x4
	if (velocity->x > 0 && XF_TO_SUB_ADDR(ballpos->x) == 14 && targety < BRICKS_HEIGHT && targetx >= 0 && targetx < BRICKS_WIDTH && bricks[targety][targetx] != 0)
     388:	addi	a3,a6,-2
     38c:	li	a5,38
     390:	bltu	a5,a3,244 <check_brick_collision+0x7c>
     394:	slli	a5,a4,0x2
	targetx = (XF_TO_ADDR(ballpos->x) - 3) / 2;
     398:	addi	a6,a6,-3
	if (velocity->x > 0 && XF_TO_SUB_ADDR(ballpos->x) == 14 && targety < BRICKS_HEIGHT && targetx >= 0 && targetx < BRICKS_WIDTH && bricks[targety][targetx] != 0)
     39c:	add	a5,a5,a4
     3a0:	slli	a5,a5,0x2
	targetx = (XF_TO_ADDR(ballpos->x) - 3) / 2;
     3a4:	srli	a3,a6,0x1f
	if (velocity->x > 0 && XF_TO_SUB_ADDR(ballpos->x) == 14 && targety < BRICKS_HEIGHT && targetx >= 0 && targetx < BRICKS_WIDTH && bricks[targety][targetx] != 0)
     3a8:	sub	a4,a5,a4
	targetx = (XF_TO_ADDR(ballpos->x) - 3) / 2;
     3ac:	add	a6,a3,a6
     3b0:	srai	a6,a6,0x1
	if (velocity->x > 0 && XF_TO_SUB_ADDR(ballpos->x) == 14 && targety < BRICKS_HEIGHT && targetx >= 0 && targetx < BRICKS_WIDTH && bricks[targety][targetx] != 0)
     3b4:	add	a2,a2,a4
     3b8:	add	a2,a2,a6
     3bc:	lbu	a5,0(a2)
     3c0:	beqz	a5,244 <check_brick_collision+0x7c>
		bricks[targety][targetx]--;
     3c4:	addi	a5,a5,-1
     3c8:	sb	a5,0(a2)
		velocity->x = -velocity->x;
     3cc:	lw	a5,0(a1)
		return 2;
     3d0:	li	a0,2
		velocity->x = -velocity->x;
     3d4:	neg	a5,a5
     3d8:	sw	a5,0(a1)
}
     3dc:	ret

000003e0 <update_ball>:

int update_ball(volatile vector2* pos, volatile vector2* velocity, int paddle_x, char bricks[BRICKS_HEIGHT][BRICKS_WIDTH]) {
     3e0:	mv	a5,a0
	if (ballpos->y >= PADDLE_Y - 1 && ballpos->y <= PADDLE_Y + PADDLE_HEIGHT / 2) {
     3e4:	lw	a0,4(a0)
     3e8:	li	a4,518
     3ec:	bge	a4,a0,3fc <update_ball+0x1c>
     3f0:	lw	a0,4(a5)
     3f4:	li	a4,522
     3f8:	bge	a4,a0,564 <update_ball+0x184>
	if (ballpos->x >= rwall_x - 3 && velocity->x > 0) {
     3fc:	lw	a2,0(a5)
     400:	li	a4,668
     404:	bge	a4,a2,4e4 <update_ball+0x104>
     408:	lw	a4,0(a1)
     40c:	blez	a4,4e4 <update_ball+0x104>
		velocity->x = -velocity->x;
     410:	lw	a4,0(a1)
     414:	neg	a4,a4
     418:	sw	a4,0(a1)
	if (ballpos->y <= 2 && velocity->y < 0)
     41c:	lw	a2,4(a5)
     420:	li	a4,2
     424:	blt	a4,a2,430 <update_ball+0x50>
     428:	lw	a4,4(a1)
     42c:	bltz	a4,5c4 <update_ball+0x1e4>
	int targety = (BALL_TO_Y_MIN_P(ballpos) - 1) / BRICK_H_PX;
     430:	lw	a7,4(a5)
	int targetx = (XF_TO_ADDR(ballpos->x) - 4) / 2;
     434:	lw	a4,0(a5)
	if (velocity->y < 0 && targety >= 0 && targety < BRICKS_HEIGHT && targetx >= 0 && targetx < BRICKS_WIDTH && bricks[targety][targetx] != 0)
     438:	lw	a6,4(a1)
	int targetx = (XF_TO_ADDR(ballpos->x) - 4) / 2;
     43c:	srai	a4,a4,0x4
     440:	addi	a0,a4,-4
     444:	srli	a2,a0,0x1f
     448:	add	a2,a2,a0
     44c:	srai	a2,a2,0x1
	if (velocity->y < 0 && targety >= 0 && targety < BRICKS_HEIGHT && targetx >= 0 && targetx < BRICKS_WIDTH && bricks[targety][targetx] != 0)
     450:	bltz	a6,644 <update_ball+0x264>
	targety = (BALL_TO_Y_MAX_P(ballpos) + 1) / BRICK_H_PX;
     454:	lw	a6,4(a5)
	if (velocity->y > 0 && targety < BRICKS_HEIGHT && targetx >= 0 && targetx < BRICKS_WIDTH && bricks[targety][targetx] != 0)
     458:	lw	a0,4(a1)
     45c:	blez	a0,468 <update_ball+0x88>
     460:	li	a0,284
     464:	bge	a0,a6,508 <update_ball+0x128>
	targety = (ballpos->y) / BRICK_H_PX;
     468:	lw	a2,4(a5)
	targetx = (XF_TO_ADDR(ballpos->x) - 5) / 2;
     46c:	lw	a6,0(a5)
	if (velocity->x < 0 && XF_TO_SUB_ADDR(ballpos->x) == 2 && targety < BRICKS_HEIGHT && targetx >= 0 && targetx < BRICKS_WIDTH && bricks[targety][targetx] != 0)
     470:	lw	a0,0(a1)
	targety = (ballpos->y) / BRICK_H_PX;
     474:	srai	a4,a2,0x1f
     478:	andi	a4,a4,15
     47c:	add	a4,a4,a2
     480:	srai	a4,a4,0x4
	if (velocity->x < 0 && XF_TO_SUB_ADDR(ballpos->x) == 2 && targety < BRICKS_HEIGHT && targetx >= 0 && targetx < BRICKS_WIDTH && bricks[targety][targetx] != 0)
     484:	bltz	a0,5d4 <update_ball+0x1f4>
	targetx = (XF_TO_ADDR(ballpos->x) - 3) / 2;
     488:	lw	a7,0(a5)
	if (velocity->x > 0 && XF_TO_SUB_ADDR(ballpos->x) == 14 && targety < BRICKS_HEIGHT && targetx >= 0 && targetx < BRICKS_WIDTH && bricks[targety][targetx] != 0)
     48c:	lw	a6,0(a1)
	return 0;
     490:	li	a0,0
	if (velocity->x > 0 && XF_TO_SUB_ADDR(ballpos->x) == 14 && targety < BRICKS_HEIGHT && targetx >= 0 && targetx < BRICKS_WIDTH && bricks[targety][targetx] != 0)
     494:	blez	a6,4a8 <update_ball+0xc8>
     498:	lw	a6,0(a5)
     49c:	li	t1,14
     4a0:	andi	a6,a6,15
     4a4:	beq	a6,t1,6ac <update_ball+0x2cc>
	check_paddle_collision(pos, velocity, paddle_x);
	check_wall_collision(pos, velocity, WALL_L_X, WALL_R_X);
	int score = check_brick_collision(pos, velocity, bricks);
	pos->x_fine += velocity->x;
     4a8:	lw	a3,0(a1)
     4ac:	lw	a4,8(a5)
     4b0:	add	a4,a4,a3
     4b4:	sw	a4,8(a5)
	pos->x = pos->x_fine >> POS_DIV;
     4b8:	lw	a4,8(a5)
     4bc:	srai	a4,a4,0x5
     4c0:	sw	a4,0(a5)
	pos->y_fine += velocity->y;
     4c4:	lw	a3,4(a1)
     4c8:	lw	a4,12(a5)
     4cc:	add	a4,a4,a3
     4d0:	sw	a4,12(a5)
	pos->y = pos->y_fine >> POS_DIV;
     4d4:	lw	a4,12(a5)
     4d8:	srai	a4,a4,0x5
     4dc:	sw	a4,4(a5)
	
	return score;
}
     4e0:	ret
	} else if (ballpos->x <= lwall_x + 3 && velocity->x < 0) {
     4e4:	lw	a2,0(a5)
     4e8:	li	a4,66
     4ec:	blt	a4,a2,41c <update_ball+0x3c>
     4f0:	lw	a4,0(a1)
     4f4:	bgez	a4,41c <update_ball+0x3c>
		velocity->x = -velocity->x;
     4f8:	lw	a4,0(a1)
     4fc:	neg	a4,a4
     500:	sw	a4,0(a1)
     504:	j	41c <update_ball+0x3c>
	if (velocity->y > 0 && targety < BRICKS_HEIGHT && targetx >= 0 && targetx < BRICKS_WIDTH && bricks[targety][targetx] != 0)
     508:	addi	a4,a4,-3
     50c:	li	a0,38
     510:	bltu	a0,a4,468 <update_ball+0x88>
	targety = (BALL_TO_Y_MAX_P(ballpos) + 1) / BRICK_H_PX;
     514:	addi	a6,a6,3
     518:	srai	a4,a6,0x1f
     51c:	andi	a4,a4,15
     520:	add	a6,a4,a6
     524:	srai	a6,a6,0x4
	if (velocity->y > 0 && targety < BRICKS_HEIGHT && targetx >= 0 && targetx < BRICKS_WIDTH && bricks[targety][targetx] != 0)
     528:	slli	a4,a6,0x2
     52c:	add	a4,a4,a6
     530:	slli	a4,a4,0x2
     534:	sub	a4,a4,a6
     538:	add	a4,a3,a4
     53c:	add	a2,a4,a2
     540:	lbu	a4,0(a2)
     544:	beqz	a4,468 <update_ball+0x88>
		bricks[targety][targetx]--;
     548:	addi	a4,a4,-1
     54c:	sb	a4,0(a2)
		velocity->y = -velocity->y;
     550:	lw	a4,4(a1)
		return 2;
     554:	li	a0,2
		velocity->y = -velocity->y;
     558:	neg	a4,a4
     55c:	sw	a4,4(a1)
		return 2;
     560:	j	4a8 <update_ball+0xc8>
		if (XF_TO_ADDR(ballpos->x) >= paddle_x && XF_TO_ADDR(ballpos->x) < paddle_x + PADDLE_WIDTH && velocity->y > 0) {
     564:	lw	a4,0(a5)
     568:	srai	a4,a4,0x4
     56c:	blt	a4,a2,3fc <update_ball+0x1c>
     570:	lw	a4,0(a5)
     574:	addi	a0,a2,2
     578:	srai	a4,a4,0x4
     57c:	blt	a0,a4,3fc <update_ball+0x1c>
     580:	lw	a4,4(a1)
     584:	blez	a4,3fc <update_ball+0x1c>
			velocity->y = -velocity->y;
     588:	lw	a4,4(a1)
			if (velocity->x > 3) velocity->x = 3;
     58c:	li	a0,3
			velocity->y = -velocity->y;
     590:	neg	a4,a4
     594:	sw	a4,4(a1)
			velocity->x += (XF_TO_ADDR(ballpos->x) - paddle_x) - (PADDLE_WIDTH / 2);
     598:	lw	a4,0(a5)
     59c:	lw	a6,0(a1)
     5a0:	srai	a4,a4,0x4
     5a4:	sub	a2,a4,a2
     5a8:	addi	a4,a2,-1
     5ac:	add	a4,a4,a6
     5b0:	sw	a4,0(a1)
			if (velocity->x > 3) velocity->x = 3;
     5b4:	lw	a4,0(a1)
     5b8:	bge	a0,a4,710 <update_ball+0x330>
     5bc:	sw	a0,0(a1)
     5c0:	j	3fc <update_ball+0x1c>
		velocity->y = -velocity->y;
     5c4:	lw	a4,4(a1)
     5c8:	neg	a4,a4
     5cc:	sw	a4,4(a1)
     5d0:	j	430 <update_ball+0x50>
	if (velocity->x < 0 && XF_TO_SUB_ADDR(ballpos->x) == 2 && targety < BRICKS_HEIGHT && targetx >= 0 && targetx < BRICKS_WIDTH && bricks[targety][targetx] != 0)
     5d4:	lw	a0,0(a5)
     5d8:	li	a7,2
     5dc:	andi	a0,a0,15
     5e0:	bne	a0,a7,488 <update_ball+0xa8>
     5e4:	li	a7,287
     5e8:	blt	a7,a2,488 <update_ball+0xa8>
	targetx = (XF_TO_ADDR(ballpos->x) - 5) / 2;
     5ec:	srai	a6,a6,0x4
	if (velocity->x < 0 && XF_TO_SUB_ADDR(ballpos->x) == 2 && targety < BRICKS_HEIGHT && targetx >= 0 && targetx < BRICKS_WIDTH && bricks[targety][targetx] != 0)
     5f0:	addi	t1,a6,-4
     5f4:	li	a7,38
     5f8:	bltu	a7,t1,488 <update_ball+0xa8>
     5fc:	slli	a7,a4,0x2
	targetx = (XF_TO_ADDR(ballpos->x) - 5) / 2;
     600:	addi	a6,a6,-5
	if (velocity->x < 0 && XF_TO_SUB_ADDR(ballpos->x) == 2 && targety < BRICKS_HEIGHT && targetx >= 0 && targetx < BRICKS_WIDTH && bricks[targety][targetx] != 0)
     604:	add	a7,a7,a4
	targetx = (XF_TO_ADDR(ballpos->x) - 5) / 2;
     608:	srli	t1,a6,0x1f
	if (velocity->x < 0 && XF_TO_SUB_ADDR(ballpos->x) == 2 && targety < BRICKS_HEIGHT && targetx >= 0 && targetx < BRICKS_WIDTH && bricks[targety][targetx] != 0)
     60c:	slli	a7,a7,0x2
	targetx = (XF_TO_ADDR(ballpos->x) - 5) / 2;
     610:	add	t1,t1,a6
	if (velocity->x < 0 && XF_TO_SUB_ADDR(ballpos->x) == 2 && targety < BRICKS_HEIGHT && targetx >= 0 && targetx < BRICKS_WIDTH && bricks[targety][targetx] != 0)
     614:	sub	a6,a7,a4
     618:	add	a6,a3,a6
	targetx = (XF_TO_ADDR(ballpos->x) - 5) / 2;
     61c:	srai	a7,t1,0x1
	if (velocity->x < 0 && XF_TO_SUB_ADDR(ballpos->x) == 2 && targety < BRICKS_HEIGHT && targetx >= 0 && targetx < BRICKS_WIDTH && bricks[targety][targetx] != 0)
     620:	add	a6,a6,a7
     624:	lbu	a7,0(a6)
     628:	beqz	a7,488 <update_ball+0xa8>
		bricks[targety][targetx]--;
     62c:	addi	a7,a7,-1
     630:	sb	a7,0(a6)
		velocity->x = -velocity->x;
     634:	lw	a4,0(a1)
     638:	neg	a4,a4
     63c:	sw	a4,0(a1)
		return 2;
     640:	j	4a8 <update_ball+0xc8>
	if (velocity->y < 0 && targety >= 0 && targety < BRICKS_HEIGHT && targetx >= 0 && targetx < BRICKS_WIDTH && bricks[targety][targetx] != 0)
     644:	addi	a0,a7,12
     648:	li	a6,302
     64c:	bltu	a6,a0,454 <update_ball+0x74>
     650:	addi	a0,a4,-3
     654:	li	a6,38
     658:	bltu	a6,a0,454 <update_ball+0x74>
	int targety = (BALL_TO_Y_MIN_P(ballpos) - 1) / BRICK_H_PX;
     65c:	addi	a7,a7,-3
     660:	srai	a0,a7,0x1f
     664:	andi	a0,a0,15
     668:	add	a7,a0,a7
     66c:	srai	a7,a7,0x4
	if (velocity->y < 0 && targety >= 0 && targety < BRICKS_HEIGHT && targetx >= 0 && targetx < BRICKS_WIDTH && bricks[targety][targetx] != 0)
     670:	slli	a0,a7,0x2
     674:	add	a0,a0,a7
     678:	slli	a0,a0,0x2
     67c:	sub	a0,a0,a7
     680:	add	a0,a3,a0
     684:	add	a0,a0,a2
     688:	lbu	a6,0(a0)
     68c:	beqz	a6,454 <update_ball+0x74>
		bricks[targety][targetx]--;
     690:	addi	a6,a6,-1
     694:	sb	a6,0(a0)
		velocity->y = -velocity->y;
     698:	lw	a4,4(a1)
		return 2;
     69c:	li	a0,2
		velocity->y = -velocity->y;
     6a0:	neg	a4,a4
     6a4:	sw	a4,4(a1)
		return 2;
     6a8:	j	4a8 <update_ball+0xc8>
	if (velocity->x > 0 && XF_TO_SUB_ADDR(ballpos->x) == 14 && targety < BRICKS_HEIGHT && targetx >= 0 && targetx < BRICKS_WIDTH && bricks[targety][targetx] != 0)
     6ac:	li	a6,287
     6b0:	blt	a6,a2,4a8 <update_ball+0xc8>
	targetx = (XF_TO_ADDR(ballpos->x) - 3) / 2;
     6b4:	srai	a7,a7,0x4
	if (velocity->x > 0 && XF_TO_SUB_ADDR(ballpos->x) == 14 && targety < BRICKS_HEIGHT && targetx >= 0 && targetx < BRICKS_WIDTH && bricks[targety][targetx] != 0)
     6b8:	addi	a6,a7,-2
     6bc:	li	a2,38
     6c0:	bltu	a2,a6,4a8 <update_ball+0xc8>
     6c4:	slli	a2,a4,0x2
	targetx = (XF_TO_ADDR(ballpos->x) - 3) / 2;
     6c8:	addi	a7,a7,-3
	if (velocity->x > 0 && XF_TO_SUB_ADDR(ballpos->x) == 14 && targety < BRICKS_HEIGHT && targetx >= 0 && targetx < BRICKS_WIDTH && bricks[targety][targetx] != 0)
     6cc:	add	a2,a2,a4
	targetx = (XF_TO_ADDR(ballpos->x) - 3) / 2;
     6d0:	srli	a6,a7,0x1f
	if (velocity->x > 0 && XF_TO_SUB_ADDR(ballpos->x) == 14 && targety < BRICKS_HEIGHT && targetx >= 0 && targetx < BRICKS_WIDTH && bricks[targety][targetx] != 0)
     6d4:	slli	a2,a2,0x2
     6d8:	sub	a4,a2,a4
	targetx = (XF_TO_ADDR(ballpos->x) - 3) / 2;
     6dc:	add	a7,a6,a7
	if (velocity->x > 0 && XF_TO_SUB_ADDR(ballpos->x) == 14 && targety < BRICKS_HEIGHT && targetx >= 0 && targetx < BRICKS_WIDTH && bricks[targety][targetx] != 0)
     6e0:	add	a3,a3,a4
	targetx = (XF_TO_ADDR(ballpos->x) - 3) / 2;
     6e4:	srai	a7,a7,0x1
	if (velocity->x > 0 && XF_TO_SUB_ADDR(ballpos->x) == 14 && targety < BRICKS_HEIGHT && targetx >= 0 && targetx < BRICKS_WIDTH && bricks[targety][targetx] != 0)
     6e8:	add	a3,a3,a7
     6ec:	lbu	a4,0(a3)
     6f0:	beqz	a4,4a8 <update_ball+0xc8>
		bricks[targety][targetx]--;
     6f4:	addi	a4,a4,-1
     6f8:	sb	a4,0(a3)
		velocity->x = -velocity->x;
     6fc:	lw	a4,0(a1)
		return 2;
     700:	li	a0,2
		velocity->x = -velocity->x;
     704:	neg	a4,a4
     708:	sw	a4,0(a1)
		return 2;
     70c:	j	4a8 <update_ball+0xc8>
			else if (velocity->x < -3) velocity->x = -3;
     710:	lw	a2,0(a1)
     714:	li	a4,-3
     718:	bge	a2,a4,3fc <update_ball+0x1c>
     71c:	sw	a4,0(a1)
     720:	j	3fc <update_ball+0x1c>

00000724 <update_paddle>:
		      	   la t1, enc_ISR 	\n\
	 	      	   csrw mtvec, t1 	\n\
		      	   csrw mie, t0		");

void update_paddle() {
	if (game_active) paddle_pos.x += enc_count;
     724:	lw	a5,-1592(gp) # 1808 <game_active>
     728:	bnez	a5,758 <update_paddle+0x34>
     72c:	addi	a5,gp,-1572 # 181c <paddle_pos>
	enc_count = 0;
     730:	sw	zero,-1576(gp) # 1818 <enc_count>
	if (paddle_pos.x > PADDLE_MAX)
     734:	lw	a3,0(a5)
     738:	li	a4,39
     73c:	blt	a4,a3,750 <update_paddle+0x2c>
	{
		paddle_pos.x = PADDLE_MAX;
	} else if (paddle_pos.x < PADDLE_MIN)
     740:	lw	a3,0(a5)
     744:	li	a4,3
     748:	blt	a4,a3,754 <update_paddle+0x30>
	{
		paddle_pos.x = PADDLE_MIN;
     74c:	li	a4,4
     750:	sw	a4,0(a5)
	}
}
     754:	ret
	if (game_active) paddle_pos.x += enc_count;
     758:	addi	a5,gp,-1572 # 181c <paddle_pos>
     75c:	lw	a2,-1576(gp) # 1818 <enc_count>
     760:	lw	a3,0(a5)
     764:	add	a3,a3,a2
     768:	sw	a3,0(a5)
     76c:	j	730 <update_paddle+0xc>

00000770 <enc_ISR>:



void __attribute__((__interrupt__)) enc_ISR()
{
     770:	addi	sp,sp,-32
     774:	sw	a5,12(sp)
	int reading = *ENC;
     778:	lui	a5,0x11040
{
     77c:	sw	a4,16(sp)
	int reading = *ENC;
     780:	lw	a4,0(a5) # 11040000 <__sp+0x11030000>
{
     784:	sw	a2,24(sp)
     788:	sw	a1,28(sp)
	int newval = (reading & 3) ^ 3;
     78c:	not	a5,a4
{
     790:	sw	a3,20(sp)
	switch (newval)
     794:	li	a2,1
	int newval = (reading & 3) ^ 3;
     798:	andi	a5,a5,3
	switch (newval)
     79c:	beq	a5,a2,7f4 <enc_ISR+0x84>
     7a0:	li	a3,2
     7a4:	beq	a5,a3,834 <enc_ISR+0xc4>
     7a8:	beqz	a5,804 <enc_ISR+0x94>
			if (enc_step == 0b00) { // Only set dir when moving from 0b00
				enc_dir = 0; // Moving forwards
			}
			break;
	}
	enc_step = newval;
     7ac:	sw	a5,-1580(gp) # 1814 <enc_step>
	if (reading & 4) enc_btn = 1;
     7b0:	andi	a5,a4,4
     7b4:	beqz	a5,7c0 <enc_ISR+0x50>
     7b8:	li	a3,1
     7bc:	sw	a3,-1588(gp) # 180c <enc_btn>
	colorval = (reading & 8) ? 0xffffffff : 0xaaaaaaaa;
     7c0:	andi	a4,a4,8
     7c4:	li	a5,-1
     7c8:	bnez	a4,7d4 <enc_ISR+0x64>
     7cc:	lui	a5,0xaaaab
     7d0:	addi	a5,a5,-1366 # aaaaaaaa <__sp+0xaaa9aaaa>
     7d4:	sw	a5,-68(gp) # 1dfc <colorval>
	//asm("li a1, 1 \n    csrw mie, a1 ");
	//asm("mret");
}
     7d8:	lw	a1,28(sp)
     7dc:	lw	a2,24(sp)
     7e0:	lw	a3,20(sp)
     7e4:	lw	a4,16(sp)
     7e8:	lw	a5,12(sp)
     7ec:	addi	sp,sp,32
     7f0:	mret
			if (enc_step == 0b00) { // Only set dir when moving from 0b00
     7f4:	lw	a2,-1580(gp) # 1814 <enc_step>
     7f8:	bnez	a2,7ac <enc_ISR+0x3c>
				enc_dir = 1; // Moving backwards
     7fc:	sw	a5,-1584(gp) # 1810 <enc_dir>
     800:	j	7ac <enc_ISR+0x3c>
			if (enc_step == 0b01 && enc_dir == 0) {
     804:	lw	a1,-1580(gp) # 1814 <enc_step>
     808:	beq	a1,a2,844 <enc_ISR+0xd4>
			} else if (enc_step == 0b10 && enc_dir == 1) {
     80c:	lw	a1,-1580(gp) # 1814 <enc_step>
     810:	li	a2,2
     814:	bne	a1,a2,7ac <enc_ISR+0x3c>
     818:	lw	a1,-1584(gp) # 1810 <enc_dir>
     81c:	li	a2,1
     820:	bne	a1,a2,7ac <enc_ISR+0x3c>
				enc_count++;
     824:	lw	a2,-1576(gp) # 1818 <enc_count>
     828:	addi	a2,a2,1
     82c:	sw	a2,-1576(gp) # 1818 <enc_count>
     830:	j	7ac <enc_ISR+0x3c>
			if (enc_step == 0b00) { // Only set dir when moving from 0b00
     834:	lw	a2,-1580(gp) # 1814 <enc_step>
     838:	bnez	a2,7ac <enc_ISR+0x3c>
				enc_dir = 0; // Moving forwards
     83c:	sw	zero,-1584(gp) # 1810 <enc_dir>
     840:	j	7ac <enc_ISR+0x3c>
			if (enc_step == 0b01 && enc_dir == 0) {
     844:	lw	a2,-1584(gp) # 1810 <enc_dir>
     848:	bnez	a2,80c <enc_ISR+0x9c>
				enc_count--;
     84c:	lw	a2,-1576(gp) # 1818 <enc_count>
     850:	addi	a2,a2,-1
     854:	sw	a2,-1576(gp) # 1818 <enc_count>
     858:	j	7ac <enc_ISR+0x3c>

0000085c <init_round>:

void init_round() {
	game_active = 0;
     85c:	sw	zero,-1592(gp) # 1808 <game_active>
	enc_btn = 0;
     860:	sw	zero,-1588(gp) # 180c <enc_btn>

	paddle_pos.x = 20;
     864:	addi	a5,gp,-1572 # 181c <paddle_pos>
     868:	li	a4,20
     86c:	sw	a4,0(a5)
	paddle_pos.y = PADDLE_Y;
     870:	li	a4,520
     874:	sw	a4,4(a5)
	ball_pos.x = 21*16;
     878:	addi	a5,gp,-1532 # 1844 <ball_pos>
     87c:	li	a4,336
     880:	sw	a4,0(a5)
	ball_pos.x_fine = (21*16) << POS_DIV;
     884:	lui	a4,0x3
     888:	addi	a4,a4,-1536 # 2a00 <__frame_dummy_init_array_entry+0x784>
     88c:	sw	a4,8(a5)
	ball_pos.y = PADDLE_Y - 6;
     890:	li	a4,514
     894:	sw	a4,4(a5)
	ball_pos.y_fine = (PADDLE_Y - 6) << POS_DIV;
     898:	lui	a4,0x4
     89c:	addi	a4,a4,64 # 4040 <__frame_dummy_init_array_entry+0x1dc4>
     8a0:	sw	a4,12(a5)
	ball_velocity.x = 2;
     8a4:	li	a4,2
     8a8:	sw	a4,16(a5)
	ball_velocity.y = -2;
     8ac:	li	a4,-2
     8b0:	sw	a4,20(a5)
}
     8b4:	ret

000008b8 <initialize>:

void initialize() {
     8b8:	addi	sp,sp,-16
	clear_screen(BLACK);
     8bc:	li	a0,0
void initialize() {
     8c0:	sw	s0,8(sp)
     8c4:	sw	ra,12(sp)
	clear_screen(BLACK);
     8c8:	jal	ra,1054 <clear_screen>
	memcpy(bricksstate, bricksinit, 18*19);
     8cc:	addi	s0,gp,-1532 # 1844 <ball_pos>
     8d0:	addi	a5,gp,-32 # 1e20 <bricksinit>
     8d4:	addi	a4,s0,32
     8d8:	addi	a3,a5,340
     8dc:	lw	a7,0(a5)
     8e0:	lw	a6,4(a5)
     8e4:	lw	a0,8(a5)
     8e8:	lw	a1,12(a5)
     8ec:	lw	a2,16(a5)
     8f0:	sw	a7,0(a4)
     8f4:	sw	a6,4(a4)
     8f8:	sw	a0,8(a4)
     8fc:	sw	a1,12(a4)
     900:	sw	a2,16(a4)
     904:	addi	a5,a5,20
     908:	addi	a4,a4,20
     90c:	bne	a5,a3,8dc <initialize+0x24>
     910:	lhu	a5,0(a5)
     914:	sh	a5,0(a4)
	draw_walls();
     918:	jal	ra,106c <draw_walls>
	score = 0;
     91c:	sw	zero,-1596(gp) # 1804 <score>
	lives = 3;
     920:	li	a4,3
     924:	sw	a4,-1600(gp) # 1800 <lives>
	game_active = 0;
     928:	sw	zero,-1592(gp) # 1808 <game_active>
	enc_btn = 0;
     92c:	sw	zero,-1588(gp) # 180c <enc_btn>
	paddle_pos.x = 20;
     930:	addi	a5,gp,-1572 # 181c <paddle_pos>
     934:	li	a4,20
     938:	sw	a4,0(a5)
	paddle_pos.y = PADDLE_Y;
     93c:	li	a4,520
     940:	sw	a4,4(a5)
	ball_pos.x = 21*16;
     944:	li	a5,336
     948:	sw	a5,0(s0)
	ball_pos.x_fine = (21*16) << POS_DIV;
     94c:	lui	a5,0x3
     950:	addi	a5,a5,-1536 # 2a00 <__frame_dummy_init_array_entry+0x784>
     954:	sw	a5,8(s0)
	ball_pos.y = PADDLE_Y - 6;
     958:	li	a5,514
     95c:	sw	a5,4(s0)
	ball_pos.y_fine = (PADDLE_Y - 6) << POS_DIV;
     960:	lui	a5,0x4
     964:	addi	a5,a5,64 # 4040 <__frame_dummy_init_array_entry+0x1dc4>
     968:	sw	a5,12(s0)
	ball_velocity.x = 2;
     96c:	li	a5,2
     970:	sw	a5,16(s0)
	ball_velocity.y = -2;
     974:	li	a5,-2
	init_round();
}
     978:	lw	ra,12(sp)
	ball_velocity.y = -2;
     97c:	sw	a5,20(s0)
}
     980:	lw	s0,8(sp)
     984:	addi	sp,sp,16
     988:	ret

0000098c <update_graphics>:

void update_graphics() {
	
	draw_ball(ball_pos);
     98c:	addi	a5,gp,-1532 # 1844 <ball_pos>
     990:	lw	a2,0(a5)
     994:	lw	a3,4(a5)
void update_graphics() {
     998:	addi	sp,sp,-48
	draw_ball(ball_pos);
     99c:	lw	a4,8(a5)
     9a0:	lw	a5,12(a5)
     9a4:	sw	a2,0(sp)
     9a8:	sw	a3,4(sp)
     9ac:	sw	a4,8(sp)
     9b0:	mv	a0,sp
void update_graphics() {
     9b4:	sw	ra,44(sp)
     9b8:	sw	s0,40(sp)
     9bc:	sw	s1,36(sp)
     9c0:	sw	s2,32(sp)
     9c4:	sw	s3,28(sp)
	draw_ball(ball_pos);
     9c8:	sw	a5,12(sp)
     9cc:	jal	ra,ec8 <draw_ball>
	//draw_num_med(bcd, XY_ADDR(50, 150), colorval);
	int bcd = (score % 10) | (((score / 10) % 10) << 4) | (((score / 100) % 10) << 8);
     9d0:	lw	s3,-1596(gp) # 1804 <score>
     9d4:	lw	a0,-1596(gp) # 1804 <score>
     9d8:	li	a1,10
     9dc:	lw	s1,-1596(gp) # 1804 <score>
     9e0:	jal	ra,119c <__divsi3>
     9e4:	li	a1,10
     9e8:	jal	ra,1220 <__modsi3>
     9ec:	mv	s0,a0
     9f0:	li	a1,100
     9f4:	mv	a0,s1
     9f8:	jal	ra,119c <__divsi3>
     9fc:	li	a1,10
     a00:	jal	ra,1220 <__modsi3>
     a04:	slli	a5,a0,0x8

	draw_num_xl(bcd, XY_ADDR(50, 200), colorval);
     a08:	lw	s2,-68(gp) # 1dfc <colorval>
	int bcd = (score % 10) | (((score / 10) % 10) << 4) | (((score / 100) % 10) << 8);
     a0c:	li	a1,10
     a10:	mv	a0,s3
     a14:	slli	s0,s0,0x4
     a18:	or	s0,s0,a5
     a1c:	jal	ra,1220 <__modsi3>
	draw_num_xl(bcd, XY_ADDR(50, 200), colorval);
     a20:	lui	a1,0x3
     a24:	mv	a2,s2
     a28:	or	a0,s0,a0
     a2c:	addi	a1,a1,562 # 3232 <__frame_dummy_init_array_entry+0xfb6>
     a30:	jal	ra,d6c <draw_num_xl>
	draw_num_xl(lives, XY_ADDR(50, 400), colorval);
     a34:	lw	a0,-1600(gp) # 1800 <lives>
     a38:	lw	a2,-68(gp) # 1dfc <colorval>
     a3c:	lui	a1,0x6
     a40:	addi	a1,a1,1074 # 6432 <__frame_dummy_init_array_entry+0x41b6>
     a44:	jal	ra,d6c <draw_num_xl>
	draw_paddle(paddle_pos);
}
     a48:	lw	s0,40(sp)
	draw_paddle(paddle_pos);
     a4c:	addi	a5,gp,-1572 # 181c <paddle_pos>
     a50:	lw	a0,0(a5)
}
     a54:	lw	ra,44(sp)
     a58:	lw	s1,36(sp)
     a5c:	lw	s2,32(sp)
     a60:	lw	s3,28(sp)
	draw_paddle(paddle_pos);
     a64:	lw	a1,4(a5)
}
     a68:	addi	sp,sp,48
	draw_paddle(paddle_pos);
     a6c:	j	dfc <draw_paddle>

00000a70 <draw_num_small>:
		digit = (number >> 8) & 15;
		graphic |= (int)(NUMS_SMALL[digit + rowOffset]) << 8;
		digit = (number >> 4) & 15;
		graphic |= (int)(NUMS_SMALL[digit + rowOffset]) << 16;
		digit = number & 15;
		graphic |= (int)(NUMS_SMALL[digit + rowOffset]) << 24;
     a70:	addi	a5,gp,312 # 1f78 <NUMS_SMALL>
		digit = (number >> 12) & 15;
     a74:	srai	a3,a0,0xc
		digit = (number >> 8) & 15;
     a78:	srai	a4,a0,0x8
		digit = number & 15;
     a7c:	andi	a2,a0,15
void draw_num_small(int number, int address) {
     a80:	addi	sp,sp,-48
		graphic |= (int)(NUMS_SMALL[digit + rowOffset]) << 24;
     a84:	add	a2,a5,a2
		digit = (number >> 12) & 15;
     a88:	andi	a3,a3,15
		digit = (number >> 8) & 15;
     a8c:	andi	a4,a4,15
		digit = (number >> 4) & 15;
     a90:	srai	a0,a0,0x4
void draw_num_small(int number, int address) {
     a94:	sw	s0,44(sp)
     a98:	sw	s3,32(sp)
		graphic |= (int)NUMS_SMALL[digit + rowOffset];
     a9c:	add	a3,a5,a3
		graphic |= (int)(NUMS_SMALL[digit + rowOffset]) << 8;
     aa0:	add	a4,a5,a4
		graphic |= (int)(NUMS_SMALL[digit + rowOffset]) << 24;
     aa4:	lbu	s3,20(a2)
     aa8:	lbu	t5,40(a2)
     aac:	lbu	s0,30(a2)
		digit = (number >> 4) & 15;
     ab0:	andi	a0,a0,15
void draw_num_small(int number, int address) {
     ab4:	sw	s1,40(sp)
     ab8:	sw	s2,36(sp)
     abc:	sw	s6,20(sp)
     ac0:	sw	s7,16(sp)
     ac4:	sw	s8,12(sp)
		graphic |= (int)(NUMS_SMALL[digit + rowOffset]) << 16;
     ac8:	add	a5,a5,a0
		graphic |= (int)(NUMS_SMALL[digit + rowOffset]) << 24;
     acc:	lbu	s2,10(a2)
		graphic |= (int)NUMS_SMALL[digit + rowOffset];
     ad0:	lbu	s8,30(a3)
     ad4:	lbu	s7,20(a3)
		graphic |= (int)(NUMS_SMALL[digit + rowOffset]) << 24;
     ad8:	lbu	s1,0(a2)
		graphic |= (int)NUMS_SMALL[digit + rowOffset];
     adc:	lbu	a0,40(a3)
		graphic |= (int)(NUMS_SMALL[digit + rowOffset]) << 8;
     ae0:	lbu	s6,40(a4)
     ae4:	lbu	a2,30(a4)
     ae8:	lbu	t2,20(a4)
void draw_num_small(int number, int address) {
     aec:	sw	s5,24(sp)
		graphic |= (int)(NUMS_SMALL[digit + rowOffset]) << 8;
     af0:	lbu	t0,10(a4)
		graphic |= (int)NUMS_SMALL[digit + rowOffset];
     af4:	lbu	s5,10(a3)
		graphic |= (int)(NUMS_SMALL[digit + rowOffset]) << 16;
     af8:	lbu	t4,40(a5)
     afc:	lbu	t3,30(a5)
     b00:	lbu	t1,20(a5)
void draw_num_small(int number, int address) {
     b04:	sw	s4,28(sp)
		graphic |= (int)(NUMS_SMALL[digit + rowOffset]) << 16;
     b08:	lbu	a7,10(a5)
		graphic |= (int)NUMS_SMALL[digit + rowOffset];
     b0c:	lbu	s4,0(a3)
		graphic |= (int)(NUMS_SMALL[digit + rowOffset]) << 24;
     b10:	slli	t5,t5,0x18
     b14:	slli	a3,s3,0x18
     b18:	slli	s0,s0,0x18
		graphic |= (int)(NUMS_SMALL[digit + rowOffset]) << 8;
     b1c:	lbu	t6,0(a4)
		graphic |= (int)(NUMS_SMALL[digit + rowOffset]) << 24;
     b20:	or	s0,s0,s8
     b24:	slli	a4,s2,0x18
     b28:	or	a0,t5,a0
		graphic |= (int)(NUMS_SMALL[digit + rowOffset]) << 8;
     b2c:	slli	s6,s6,0x8
		graphic |= (int)(NUMS_SMALL[digit + rowOffset]) << 24;
     b30:	or	a3,a3,s7
		graphic |= (int)(NUMS_SMALL[digit + rowOffset]) << 8;
     b34:	slli	a2,a2,0x8
     b38:	slli	t2,t2,0x8
		graphic |= (int)(NUMS_SMALL[digit + rowOffset]) << 16;
     b3c:	lbu	a6,0(a5)
		graphic |= (int)(NUMS_SMALL[digit + rowOffset]) << 24;
     b40:	or	a4,a4,s5
		*((int *)(VGA_ADDR + address)) = graphic;
     b44:	slli	t5,a1,0x2
		graphic |= (int)(NUMS_SMALL[digit + rowOffset]) << 24;
     b48:	or	a0,a0,s6
     b4c:	or	a2,s0,a2
		graphic |= (int)(NUMS_SMALL[digit + rowOffset]) << 8;
     b50:	slli	t0,t0,0x8
		graphic |= (int)(NUMS_SMALL[digit + rowOffset]) << 16;
     b54:	slli	t4,t4,0x10
     b58:	slli	t3,t3,0x10
		graphic |= (int)(NUMS_SMALL[digit + rowOffset]) << 24;
     b5c:	or	a3,a3,t2
		graphic |= (int)(NUMS_SMALL[digit + rowOffset]) << 16;
     b60:	slli	t1,t1,0x10
		*((int *)(VGA_ADDR + address)) = graphic;
     b64:	lui	a1,0xfff00
     b68:	add	a1,a1,t5
		graphic |= (int)(NUMS_SMALL[digit + rowOffset]) << 24;
     b6c:	slli	s1,s1,0x18
     b70:	or	a4,a4,t0
		graphic |= (int)(NUMS_SMALL[digit + rowOffset]) << 16;
     b74:	slli	a7,a7,0x10
		graphic |= (int)(NUMS_SMALL[digit + rowOffset]) << 24;
     b78:	or	a0,a0,t4
     b7c:	or	a2,a2,t3
     b80:	or	a3,a3,t1
     b84:	or	a5,s1,s4
		graphic |= (int)(NUMS_SMALL[digit + rowOffset]) << 8;
     b88:	slli	t6,t6,0x8
		graphic |= (int)(NUMS_SMALL[digit + rowOffset]) << 24;
     b8c:	or	a4,a4,a7
		*((int *)(VGA_ADDR + address)) = graphic;
     b90:	sw	a0,0(a1) # fff00000 <__sp+0xffef0000>
     b94:	sw	a2,-256(a1)
     b98:	sw	a3,-512(a1)
     b9c:	sw	a4,-768(a1)
		graphic |= (int)(NUMS_SMALL[digit + rowOffset]) << 24;
     ba0:	or	a5,a5,t6
		address -= 64;
	}
}
     ba4:	lw	s0,44(sp)
		graphic |= (int)(NUMS_SMALL[digit + rowOffset]) << 16;
     ba8:	slli	a6,a6,0x10
		graphic |= (int)(NUMS_SMALL[digit + rowOffset]) << 24;
     bac:	or	a5,a5,a6
		*((int *)(VGA_ADDR + address)) = graphic;
     bb0:	sw	a5,-1024(a1)
}
     bb4:	lw	s1,40(sp)
     bb8:	lw	s2,36(sp)
     bbc:	lw	s3,32(sp)
     bc0:	lw	s4,28(sp)
     bc4:	lw	s5,24(sp)
     bc8:	lw	s6,20(sp)
     bcc:	lw	s7,16(sp)
     bd0:	lw	s8,12(sp)
     bd4:	addi	sp,sp,48
     bd8:	ret

00000bdc <draw_num_med>:
		digit = (number >> 8) & 15;
		graphic |= (int)NUMS_MED[digit + rowOffset];
		digit = (number >> 4) & 15;
		graphic |= (int)(NUMS_MED[digit + rowOffset]) << 10;
		digit = number & 15;
		graphic |= (int)(NUMS_MED[digit + rowOffset]) << 20;
     bdc:	addi	a4,gp,312 # 1f78 <NUMS_SMALL>
		digit = (number >> 8) & 15;
     be0:	srai	a6,a0,0x8
		digit = (number >> 4) & 15;
     be4:	srai	a3,a0,0x4
		digit = number & 15;
     be8:	andi	a0,a0,15
void draw_num_med(int number, int address, int colormask) {
     bec:	addi	sp,sp,-48
		graphic |= (int)(NUMS_MED[digit + rowOffset]) << 20;
     bf0:	add	a5,a4,a0
		digit = (number >> 4) & 15;
     bf4:	andi	a3,a3,15
		digit = (number >> 8) & 15;
     bf8:	andi	a0,a6,15
void draw_num_med(int number, int address, int colormask) {
     bfc:	sw	s0,44(sp)
		graphic |= (int)(NUMS_MED[digit + rowOffset]) << 10;
     c00:	add	a3,a4,a3
		graphic |= (int)(NUMS_MED[digit + rowOffset]) << 20;
     c04:	lbu	s0,112(a5)
		graphic |= (int)NUMS_MED[digit + rowOffset];
     c08:	add	a4,a4,a0
void draw_num_med(int number, int address, int colormask) {
     c0c:	sw	s8,12(sp)
		graphic |= (int)(NUMS_MED[digit + rowOffset]) << 10;
     c10:	lbu	t1,112(a3)
		graphic |= (int)NUMS_MED[digit + rowOffset];
     c14:	lbu	s8,112(a4)
void draw_num_med(int number, int address, int colormask) {
     c18:	sw	s2,36(sp)
     c1c:	sw	s9,8(sp)
     c20:	sw	s10,4(sp)
		graphic |= (int)(NUMS_MED[digit + rowOffset]) << 10;
     c24:	lbu	s9,52(a3)
		graphic |= (int)(NUMS_MED[digit + rowOffset]) << 20;
     c28:	lbu	s10,62(a5)
     c2c:	lbu	t2,102(a5)
     c30:	lbu	t0,92(a5)
     c34:	lbu	t6,82(a5)
     c38:	lbu	t5,72(a5)
     c3c:	lbu	s2,52(a5)
		graphic |= (int)(NUMS_MED[digit + rowOffset]) << 10;
     c40:	lbu	t3,72(a3)
void draw_num_med(int number, int address, int colormask) {
     c44:	sw	s3,32(sp)
     c48:	sw	s4,28(sp)
     c4c:	sw	s5,24(sp)
     c50:	sw	s6,20(sp)
     c54:	sw	s7,16(sp)
		graphic |= (int)(NUMS_MED[digit + rowOffset]) << 10;
     c58:	lbu	s6,92(a3)
     c5c:	lbu	s7,102(a3)
     c60:	lbu	s5,82(a3)
		graphic |= (int)NUMS_MED[digit + rowOffset];
     c64:	lbu	s4,72(a4)
     c68:	lbu	s3,62(a4)
     c6c:	lbu	a7,102(a4)
     c70:	lbu	a6,92(a4)
     c74:	lbu	a0,82(a4)
		graphic |= (int)(NUMS_MED[digit + rowOffset]) << 10;
     c78:	lbu	t4,62(a3)
		graphic |= (int)(NUMS_MED[digit + rowOffset]) << 20;
     c7c:	slli	s0,s0,0x14
void draw_num_med(int number, int address, int colormask) {
     c80:	sw	s1,40(sp)
		graphic |= (int)(NUMS_MED[digit + rowOffset]) << 20;
     c84:	or	s0,s0,s8
		graphic |= (int)NUMS_MED[digit + rowOffset];
     c88:	lbu	s1,52(a4)
		graphic |= (int)(NUMS_MED[digit + rowOffset]) << 10;
     c8c:	slli	t1,t1,0xa
		graphic |= (int)(NUMS_MED[digit + rowOffset]) << 20;
     c90:	slli	t2,t2,0x14
     c94:	slli	t0,t0,0x14
     c98:	slli	t6,t6,0x14
     c9c:	slli	a4,s10,0x14
		graphic |= (int)(NUMS_MED[digit + rowOffset]) << 10;
     ca0:	slli	a5,s9,0xa
		graphic |= (int)(NUMS_MED[digit + rowOffset]) << 20;
     ca4:	slli	s2,s2,0x14
		graphic |= (int)(NUMS_MED[digit + rowOffset]) << 10;
     ca8:	slli	a3,t3,0xa
		graphic |= (int)(NUMS_MED[digit + rowOffset]) << 20;
     cac:	or	t1,s0,t1
		graphic &= colormask;
		*((int *)(VGA_ADDR + address)) = graphic;
     cb0:	slli	t3,a1,0x2
		graphic |= (int)(NUMS_MED[digit + rowOffset]) << 20;
     cb4:	slli	t5,t5,0x14
		*((int *)(VGA_ADDR + address)) = graphic;
     cb8:	lui	a1,0xfff00
     cbc:	add	a1,a1,t3
		graphic |= (int)(NUMS_MED[digit + rowOffset]) << 20;
     cc0:	or	a7,t2,a7
     cc4:	or	a6,t0,a6
		graphic |= (int)(NUMS_MED[digit + rowOffset]) << 10;
     cc8:	slli	t2,s7,0xa
     ccc:	slli	t0,s6,0xa
		graphic |= (int)(NUMS_MED[digit + rowOffset]) << 20;
     cd0:	or	a0,t6,a0
     cd4:	or	t5,t5,s4
		graphic |= (int)(NUMS_MED[digit + rowOffset]) << 10;
     cd8:	slli	t6,s5,0xa
		graphic |= (int)(NUMS_MED[digit + rowOffset]) << 20;
     cdc:	or	a4,a4,s3
     ce0:	or	a5,a5,s2
		graphic |= (int)(NUMS_MED[digit + rowOffset]) << 10;
     ce4:	slli	t4,t4,0xa
		graphic &= colormask;
     ce8:	and	t1,a2,t1
		*((int *)(VGA_ADDR + address)) = graphic;
     cec:	sw	t1,0(a1) # fff00000 <__sp+0xffef0000>
		graphic |= (int)(NUMS_MED[digit + rowOffset]) << 20;
     cf0:	or	a5,a5,s1
		address -= 64;
	}
}
     cf4:	lw	s0,44(sp)
		graphic |= (int)(NUMS_MED[digit + rowOffset]) << 20;
     cf8:	or	a7,a7,t2
     cfc:	or	a6,a6,t0
     d00:	or	a0,a0,t6
     d04:	or	a3,t5,a3
     d08:	or	a4,a4,t4
		graphic &= colormask;
     d0c:	and	a7,a7,a2
     d10:	and	a6,a2,a6
     d14:	and	a0,a2,a0
     d18:	and	a3,a2,a3
     d1c:	and	a4,a2,a4
     d20:	and	a5,a5,a2
		*((int *)(VGA_ADDR + address)) = graphic;
     d24:	sw	a7,-256(a1)
     d28:	sw	a6,-512(a1)
     d2c:	sw	a0,-768(a1)
     d30:	sw	a3,-1024(a1)
     d34:	sw	a4,-1280(a1)
     d38:	sw	a5,-1536(a1)
}
     d3c:	lw	s1,40(sp)
     d40:	lw	s2,36(sp)
     d44:	lw	s3,32(sp)
     d48:	lw	s4,28(sp)
     d4c:	lw	s5,24(sp)
     d50:	lw	s6,20(sp)
     d54:	lw	s7,16(sp)
     d58:	lw	s8,12(sp)
     d5c:	lw	s9,8(sp)
     d60:	lw	s10,4(sp)
     d64:	addi	sp,sp,48
     d68:	ret

00000d6c <draw_num_xl>:
	for(int rowOffset = 150; rowOffset >= 0; rowOffset -= 10) {
		int graphicr = 0;
		int graphicl = 0;

		graphicr = NUMS_XL[(number & 15) + rowOffset] << 16;
		graphicr |= NUMS_XL[((number >> 4) & 15) + rowOffset] >> 2;
     d6c:	srai	t1,a0,0x4
     d70:	andi	t1,t1,15
	for(int rowOffset = 150; rowOffset >= 0; rowOffset -= 10) {
     d74:	slli	a4,t1,0x2
     d78:	addi	a5,gp,436 # 1ff4 <NUMS_XL>
     d7c:	slli	t3,a1,0x2
		graphicr = NUMS_XL[(number & 15) + rowOffset] << 16;
     d80:	andi	t4,a0,15
		graphicr &= colormask;

		graphicl = NUMS_XL[((number >> 4) & 15) + rowOffset] << 30;
		graphicl |= NUMS_XL[((number >> 8) & 15) + rowOffset] << 12;
     d84:	srli	a7,a0,0x6
     d88:	neg	t1,t1
     d8c:	add	a0,a5,a4
     d90:	lui	a3,0xfff00
     d94:	lui	a5,0xffeff
     d98:	add	a3,a3,t3
     d9c:	slli	t1,t1,0x2
     da0:	add	t3,t3,a5
     da4:	slli	t4,t4,0x2
     da8:	andi	a7,a7,60
		graphicr = NUMS_XL[(number & 15) + rowOffset] << 16;
     dac:	add	a1,t1,a0
		graphicl |= NUMS_XL[((number >> 8) & 15) + rowOffset] << 12;
     db0:	add	a4,a1,a7
		graphicr |= NUMS_XL[((number >> 4) & 15) + rowOffset] >> 2;
     db4:	lw	a5,600(a0)
		graphicl |= NUMS_XL[((number >> 8) & 15) + rowOffset] << 12;
     db8:	lw	a4,600(a4)
		graphicr = NUMS_XL[(number & 15) + rowOffset] << 16;
     dbc:	add	a1,a1,t4
     dc0:	lw	a1,600(a1)
		graphicl = NUMS_XL[((number >> 4) & 15) + rowOffset] << 30;
     dc4:	slli	a6,a5,0x1e
		graphicl |= NUMS_XL[((number >> 8) & 15) + rowOffset] << 12;
     dc8:	slli	a4,a4,0xc
		graphicr = NUMS_XL[(number & 15) + rowOffset] << 16;
     dcc:	slli	a1,a1,0x10
		graphicr |= NUMS_XL[((number >> 4) & 15) + rowOffset] >> 2;
     dd0:	srai	a5,a5,0x2
		graphicl |= NUMS_XL[((number >> 8) & 15) + rowOffset] << 12;
     dd4:	or	a4,a4,a6
		graphicr |= NUMS_XL[((number >> 4) & 15) + rowOffset] >> 2;
     dd8:	or	a5,a5,a1
		graphicl &= colormask;
     ddc:	and	a4,a2,a4

		*((volatile int *)(VGA_ADDR + address)) = graphicl;
     de0:	sw	a4,0(a3) # fff00000 <__sp+0xffef0000>
		graphicr &= colormask;
     de4:	and	a5,a5,a2
		*((volatile int *)(VGA_ADDR + address + 1)) = graphicr;
     de8:	sw	a5,4(a3)
	for(int rowOffset = 150; rowOffset >= 0; rowOffset -= 10) {
     dec:	addi	a3,a3,-256
     df0:	addi	a0,a0,-40
     df4:	bne	t3,a3,dac <draw_num_xl+0x40>

		address -= 64;
	}
}
     df8:	ret

00000dfc <draw_paddle>:

void draw_paddle(volatile vector2_b pos) {
     dfc:	addi	sp,sp,-16
     e00:	sw	a0,8(sp)
     e04:	sw	a1,12(sp)
	volatile int* address = VGA_ADDR + Y_TO_ADDR(pos.y);
     e08:	lw	a5,12(sp)
	address += paddle_x_old;
     e0c:	lw	a3,-1564(gp) # 1824 <paddle_x_old>
	volatile int* address = VGA_ADDR + Y_TO_ADDR(pos.y);
     e10:	slli	a5,a5,0x6
	address += paddle_x_old;
     e14:	lui	a4,0xfff00
     e18:	add	a5,a5,a3
     e1c:	slli	a5,a5,0x2
     e20:	add	a5,a4,a5
	for (int y = 0; y < PADDLE_HEIGHT; y++) {
		for (int x = 0; x < PADDLE_WIDTH; x++) {
			*(address + x) = 0;
     e24:	sw	zero,0(a5) # ffeff000 <__sp+0xffeef000>
     e28:	sw	zero,4(a5)
     e2c:	sw	zero,8(a5)
     e30:	sw	zero,256(a5)
     e34:	sw	zero,260(a5)
     e38:	sw	zero,264(a5)
     e3c:	sw	zero,512(a5)
     e40:	sw	zero,516(a5)
     e44:	sw	zero,520(a5)
     e48:	sw	zero,768(a5)
     e4c:	sw	zero,772(a5)
     e50:	sw	zero,776(a5)
     e54:	sw	zero,1024(a5)
     e58:	sw	zero,1028(a5)
     e5c:	sw	zero,1032(a5)
		}
		address += 64;
	}
	address = VGA_ADDR + POS_TO_ADDR(pos);
     e60:	lw	a1,8(sp)
     e64:	lw	a5,12(sp)
	//address += pos.x;
	for (int y = 0; y < PADDLE_HEIGHT; y++) {
		for (int x = 0; x < PADDLE_WIDTH; x++) {
			*(address + x) = 0xffffffff;
     e68:	li	a3,-1
	address = VGA_ADDR + POS_TO_ADDR(pos);
     e6c:	slli	a5,a5,0x6
     e70:	add	a5,a5,a1
     e74:	slli	a5,a5,0x2
     e78:	add	a5,a4,a5
			*(address + x) = 0xffffffff;
     e7c:	sw	a3,0(a5)
     e80:	sw	a3,4(a5)
     e84:	sw	a3,8(a5)
     e88:	sw	a3,256(a5)
     e8c:	sw	a3,260(a5)
     e90:	sw	a3,264(a5)
     e94:	sw	a3,512(a5)
     e98:	sw	a3,516(a5)
     e9c:	sw	a3,520(a5)
     ea0:	sw	a3,768(a5)
     ea4:	sw	a3,772(a5)
     ea8:	sw	a3,776(a5)
     eac:	sw	a3,1024(a5)
     eb0:	sw	a3,1028(a5)
     eb4:	sw	a3,1032(a5)
		}
		address += 64;
	}
	paddle_x_old = pos.x;
     eb8:	lw	a5,8(sp)
     ebc:	sw	a5,-1564(gp) # 1824 <paddle_x_old>
}
     ec0:	addi	sp,sp,16
     ec4:	ret

00000ec8 <draw_ball>:

void draw_ball(volatile vector2 pos) {
	// Clear old position
	int targetxl = BALL_TO_X_MIN(ball_pos_old);
     ec8:	addi	a3,gp,-1156 # 19bc <ball_pos_old>
     ecc:	lw	a1,0(a3)
	for (int y = BALL_TO_Y_MIN(ball_pos_old); y <= BALL_TO_Y_MAX(ball_pos_old); y++) {
     ed0:	lw	a5,4(a3)
     ed4:	lw	a4,4(a3)
	int targetxl = BALL_TO_X_MIN(ball_pos_old);
     ed8:	addi	a1,a1,-2
		*(VGA_ADDR + XYF_ADDR(targetxl, y)) = 0;
	}
	int targetxr = BALL_TO_X_MAX(ball_pos_old); // in case it overlaps 2 blocks
	if (XF_TO_ADDR(targetxl) != XF_TO_ADDR(targetxr)) {
     edc:	srai	a1,a1,0x4
     ee0:	slli	a2,a1,0x2
     ee4:	lui	a6,0xfff00
	for (int y = BALL_TO_Y_MIN(ball_pos_old); y <= BALL_TO_Y_MAX(ball_pos_old); y++) {
     ee8:	addi	a5,a5,-2
     eec:	addi	a4,a4,2 # fff00002 <__sp+0xffef0002>
     ef0:	add	a2,a2,a6
     ef4:	blt	a4,a5,f14 <draw_ball+0x4c>
		*(VGA_ADDR + XYF_ADDR(targetxl, y)) = 0;
     ef8:	slli	a4,a5,0x8
     efc:	add	a4,a2,a4
     f00:	sw	zero,0(a4)
	for (int y = BALL_TO_Y_MIN(ball_pos_old); y <= BALL_TO_Y_MAX(ball_pos_old); y++) {
     f04:	lw	a4,4(a3)
     f08:	addi	a5,a5,1
     f0c:	addi	a4,a4,2
     f10:	bge	a4,a5,ef8 <draw_ball+0x30>
	int targetxr = BALL_TO_X_MAX(ball_pos_old); // in case it overlaps 2 blocks
     f14:	lw	a2,0(a3)
     f18:	addi	a2,a2,2
	if (XF_TO_ADDR(targetxl) != XF_TO_ADDR(targetxr)) {
     f1c:	srai	a2,a2,0x4
     f20:	beq	a2,a1,f60 <draw_ball+0x98>
		for (int y = BALL_TO_Y_MIN(ball_pos_old); y <= BALL_TO_Y_MAX(ball_pos_old); y++) {
     f24:	lw	a4,4(a3)
     f28:	lw	a5,4(a3)
     f2c:	addi	a4,a4,-2
     f30:	addi	a5,a5,2
     f34:	blt	a5,a4,f60 <draw_ball+0x98>
			*(VGA_ADDR + XYF_ADDR(targetxr, y)) = 0;
     f38:	lui	a1,0xfff00
     f3c:	slli	a5,a4,0x6
     f40:	add	a5,a5,a2
     f44:	slli	a5,a5,0x2
     f48:	add	a5,a1,a5
     f4c:	sw	zero,0(a5)
		for (int y = BALL_TO_Y_MIN(ball_pos_old); y <= BALL_TO_Y_MAX(ball_pos_old); y++) {
     f50:	lw	a5,4(a3)
     f54:	addi	a4,a4,1
     f58:	addi	a5,a5,2
     f5c:	bge	a5,a4,f3c <draw_ball+0x74>
		}
	}
	ball_pos_old = pos;
     f60:	lw	a1,0(a0)
     f64:	lw	a2,4(a0)
     f68:	lw	a4,8(a0)
     f6c:	lw	a5,12(a0)
     f70:	sw	a1,0(a3)
     f74:	sw	a2,4(a3)
     f78:	sw	a4,8(a3)
     f7c:	sw	a5,12(a3)
	// Draw the ball
	targetxl = BALL_TO_X_MIN(pos);
     f80:	lw	a6,0(a0)
	for (int y = BALL_TO_Y_MIN(pos); y <= BALL_TO_Y_MAX(pos); y++) {
     f84:	lw	a4,4(a0)
     f88:	lw	a5,4(a0)
	targetxl = BALL_TO_X_MIN(pos);
     f8c:	addi	a6,a6,-2 # ffeffffe <__sp+0xffeefffe>
		*(VGA_ADDR + XYF_ADDR(targetxl, y)) = 1023 << (XF_TO_SUB_ADDR(BALL_TO_X_MIN(pos)) * 2);
	}
	targetxr = BALL_TO_X_MAX(pos); // in case it overlaps 2 blocks
	if (XF_TO_ADDR(targetxl) != XF_TO_ADDR(targetxr)) {
     f90:	srai	a6,a6,0x4
     f94:	slli	a2,a6,0x2
     f98:	lui	a3,0xfff00
	for (int y = BALL_TO_Y_MIN(pos); y <= BALL_TO_Y_MAX(pos); y++) {
     f9c:	addi	a4,a4,-2
     fa0:	addi	a5,a5,2
     fa4:	add	a2,a2,a3
		*(VGA_ADDR + XYF_ADDR(targetxl, y)) = 1023 << (XF_TO_SUB_ADDR(BALL_TO_X_MIN(pos)) * 2);
     fa8:	li	a1,1023
	for (int y = BALL_TO_Y_MIN(pos); y <= BALL_TO_Y_MAX(pos); y++) {
     fac:	blt	a5,a4,fe0 <draw_ball+0x118>
		*(VGA_ADDR + XYF_ADDR(targetxl, y)) = 1023 << (XF_TO_SUB_ADDR(BALL_TO_X_MIN(pos)) * 2);
     fb0:	lw	a5,0(a0)
     fb4:	slli	a3,a4,0x8
     fb8:	add	a3,a2,a3
     fbc:	addi	a5,a5,-2
     fc0:	andi	a5,a5,15
     fc4:	slli	a5,a5,0x1
     fc8:	sll	a5,a1,a5
     fcc:	sw	a5,0(a3) # fff00000 <__sp+0xffef0000>
	for (int y = BALL_TO_Y_MIN(pos); y <= BALL_TO_Y_MAX(pos); y++) {
     fd0:	lw	a5,4(a0)
     fd4:	addi	a4,a4,1
     fd8:	addi	a5,a5,2
     fdc:	bge	a5,a4,fb0 <draw_ball+0xe8>
	targetxr = BALL_TO_X_MAX(pos); // in case it overlaps 2 blocks
     fe0:	lw	a2,0(a0)
     fe4:	addi	a2,a2,2
	if (XF_TO_ADDR(targetxl) != XF_TO_ADDR(targetxr)) {
     fe8:	srai	a2,a2,0x4
     fec:	beq	a2,a6,1050 <draw_ball+0x188>
		for (int y = BALL_TO_Y_MIN(pos); y <= BALL_TO_Y_MAX(pos); y++) {
     ff0:	lw	a3,4(a0)
     ff4:	lw	a5,4(a0)
     ff8:	addi	a3,a3,-2
     ffc:	addi	a5,a5,2
    1000:	blt	a5,a3,104c <draw_ball+0x184>
			*(VGA_ADDR + XYF_ADDR(targetxr, y)) = 1023 >> (10 - (XF_TO_SUB_ADDR(BALL_TO_X_MAX(pos)) * 2));
    1004:	lui	a7,0xfff00
    1008:	li	a6,5
    100c:	li	a1,1023
    1010:	lw	a5,0(a0)
    1014:	slli	a4,a3,0x6
    1018:	add	a4,a4,a2
    101c:	addi	a5,a5,2
    1020:	andi	a5,a5,15
    1024:	sub	a5,a6,a5
    1028:	slli	a4,a4,0x2
    102c:	slli	a5,a5,0x1
    1030:	sra	a5,a1,a5
    1034:	add	a4,a7,a4
    1038:	sw	a5,0(a4)
		for (int y = BALL_TO_Y_MIN(pos); y <= BALL_TO_Y_MAX(pos); y++) {
    103c:	lw	a5,4(a0)
    1040:	addi	a3,a3,1
    1044:	addi	a5,a5,2
    1048:	bge	a5,a3,1010 <draw_ball+0x148>
		}
	}
}
    104c:	ret
    1050:	ret

00001054 <clear_screen>:


void clear_screen(int color) {
	for (volatile int* i = VGA_ADDR; i < VGA_ADDR + 0x21c00; i++) {
    1054:	lui	a5,0xfff00
    1058:	lui	a4,0xfff87
		*i = color;	
    105c:	sw	a0,0(a5) # fff00000 <__sp+0xffef0000>
	for (volatile int* i = VGA_ADDR; i < VGA_ADDR + 0x21c00; i++) {
    1060:	addi	a5,a5,4
    1064:	bne	a5,a4,105c <clear_screen+0x8>
	}
}
    1068:	ret

0000106c <draw_walls>:

void draw_walls() {
	volatile int* address = VGA_ADDR + WALL_L_ADDR;
    106c:	lui	a5,0xfff00
	for (int i = 0; i < 540; i++)
    1070:	lui	a3,0xfff22
	volatile int* address = VGA_ADDR + WALL_L_ADDR;
    1074:	addi	a5,a5,12 # fff0000c <__sp+0xffef000c>
	{
		*address = 0xc0000000;
    1078:	lui	a1,0xc0000
		address += WALL_R_OFFSET;
		*address = 0x00000003;
    107c:	li	a2,3
	for (int i = 0; i < 540; i++)
    1080:	addi	a3,a3,-1268 # fff21b0c <__sp+0xfff11b0c>
		*address = 0xc0000000;
    1084:	sw	a1,0(a5)
		*address = 0x00000003;
    1088:	sw	a2,156(a5)
		address += (64-WALL_R_OFFSET);
    108c:	mv	a4,a5
    1090:	addi	a5,a5,256
	for (int i = 0; i < 540; i++)
    1094:	bne	a4,a3,1084 <draw_walls+0x18>
	}
	
}
    1098:	ret

0000109c <draw_bricks>:

void draw_bricks(char brickarr[BRICKS_HEIGHT][BRICKS_WIDTH]) {
    109c:	addi	sp,sp,-16
    10a0:	sw	s1,8(sp)
    10a4:	sw	s2,4(sp)
    10a8:	lui	s1,0xfff00
							*address = 0xfffffffc;
							address++;
							*address = 0x3fffffff;
							break;
						case 2:
							*address = 0xfffffffc & HGRAY;
    10ac:	lui	t6,0xaaaab
							address++;
							*address = 0x3fffffff & HGRAY;
    10b0:	lui	t5,0x2aaab
							*address = 0x3fffffff;
    10b4:	lui	t4,0x40000
							break;
						case 1:
							*address = 0xfffffffc & LGRAY;
    10b8:	lui	t3,0x55555
							address++;
							*address = 0x3fffffff & LGRAY;
    10bc:	lui	t1,0x15555
	for (int y = 0; y < BRICKS_HEIGHT; y++)
    10c0:	lui	s2,0xfff12
void draw_bricks(char brickarr[BRICKS_HEIGHT][BRICKS_WIDTH]) {
    10c4:	sw	s0,12(sp)
    10c8:	addi	s1,s1,272 # fff00110 <__sp+0xffef0110>
    10cc:	mv	s0,a0
							*address = 0xfffffffc & HGRAY;
    10d0:	addi	t6,t6,-1368 # aaaaaaa8 <__sp+0xaaa9aaa8>
							*address = 0x3fffffff & HGRAY;
    10d4:	addi	t5,t5,-1366 # 2aaaaaaa <__sp+0x2aa9aaaa>
					switch (brickarr[y][x])
    10d8:	li	a6,3
							*address = 0xfffffffc;
    10dc:	li	t0,-4
							*address = 0x3fffffff;
    10e0:	addi	t4,t4,-1 # 3fffffff <__sp+0x3ffeffff>
					switch (brickarr[y][x])
    10e4:	li	a0,1
							*address = 0xfffffffc & LGRAY;
    10e8:	addi	t3,t3,1364 # 55555554 <__sp+0x55545554>
							*address = 0x3fffffff & LGRAY;
    10ec:	addi	t1,t1,1365 # 15555555 <__sp+0x15545555>
	for (int y = 0; y < BRICKS_HEIGHT; y++)
    10f0:	addi	s2,s2,272 # fff12110 <__sp+0xfff02110>
		for (int yp = 0; yp < BRICK_H_PX; yp++)
    10f4:	addi	a2,s1,-104
    10f8:	li	a7,0
			if (yp == 0 || yp == BRICK_H_PX-1) {
    10fc:	li	t2,15
					switch (brickarr[y][x])
    1100:	li	a1,2
    1104:	addi	a5,a2,-152
			if (yp == 0 || yp == BRICK_H_PX-1) {
    1108:	beqz	a7,1150 <draw_bricks+0xb4>
    110c:	beq	a7,t2,1150 <draw_bricks+0xb4>
    1110:	mv	a3,s0
    1114:	j	1130 <draw_bricks+0x94>
					switch (brickarr[y][x])
    1118:	beq	a4,a0,1190 <draw_bricks+0xf4>
							break;
						default:
							*address = 0;
    111c:	sw	zero,0(a5)
							address++;
							*address = 0;
    1120:	sw	zero,4(a5)
							break;
					}
					address++;
    1124:	addi	a5,a5,8
				for (int x = 0; x < BRICKS_WIDTH; x++) {
    1128:	addi	a3,a3,1
    112c:	beq	a5,a2,1150 <draw_bricks+0xb4>
					switch (brickarr[y][x])
    1130:	lbu	a4,0(a3)
    1134:	beq	a4,a1,1184 <draw_bricks+0xe8>
    1138:	bne	a4,a6,1118 <draw_bricks+0x7c>
							*address = 0xfffffffc;
    113c:	sw	t0,0(a5)
							*address = 0x3fffffff;
    1140:	sw	t4,4(a5)
					address++;
    1144:	addi	a5,a5,8
				for (int x = 0; x < BRICKS_WIDTH; x++) {
    1148:	addi	a3,a3,1
    114c:	bne	a5,a2,1130 <draw_bricks+0x94>
		for (int yp = 0; yp < BRICK_H_PX; yp++)
    1150:	addi	a7,a7,1 # fff00001 <__sp+0xffef0001>
    1154:	li	a5,16
    1158:	addi	a2,a2,256
    115c:	bne	a7,a5,1104 <draw_bricks+0x68>
	for (int y = 0; y < BRICKS_HEIGHT; y++)
    1160:	lui	a5,0x1
    1164:	add	s1,s1,a5
    1168:	addi	s0,s0,19
    116c:	bne	s1,s2,10f4 <draw_bricks+0x58>
				}
				address += 64-(BRICKS_WIDTH*2);
			}
		}
	}
}
    1170:	lw	s0,12(sp)
    1174:	lw	s1,8(sp)
    1178:	lw	s2,4(sp)
    117c:	addi	sp,sp,16
    1180:	ret
							*address = 0xfffffffc & HGRAY;
    1184:	sw	t6,0(a5) # 1000 <draw_ball+0x138>
							*address = 0x3fffffff & HGRAY;
    1188:	sw	t5,4(a5)
							break;
    118c:	j	1124 <draw_bricks+0x88>
							*address = 0xfffffffc & LGRAY;
    1190:	sw	t3,0(a5)
							*address = 0x3fffffff & LGRAY;
    1194:	sw	t1,4(a5)
							break;
    1198:	j	1124 <draw_bricks+0x88>

0000119c <__divsi3>:
  li    t0, -1
  beq   a1, t0, .L20
#endif

FUNC_BEGIN (__divdi3)
  bltz  a0, .L10
    119c:	bltz	a0,11fc <__umodsi3+0x10>
  bltz  a1, .L11
    11a0:	bltz	a1,120c <__umodsi3+0x20>

000011a4 <__udivsi3>:
  /* Since the quotient is positive, fall into __udivdi3.  */

FUNC_BEGIN (__udivdi3)
  mv    a2, a1
    11a4:	mv	a2,a1
  mv    a1, a0
    11a8:	mv	a1,a0
  li    a0, -1
    11ac:	li	a0,-1
  beqz  a2, .L5
    11b0:	beqz	a2,11e8 <__udivsi3+0x44>
  li    a3, 1
    11b4:	li	a3,1
  bgeu  a2, a1, .L2
    11b8:	bgeu	a2,a1,11cc <__udivsi3+0x28>
.L1:
  blez  a2, .L2
    11bc:	blez	a2,11cc <__udivsi3+0x28>
  slli  a2, a2, 1
    11c0:	slli	a2,a2,0x1
  slli  a3, a3, 1
    11c4:	slli	a3,a3,0x1
  bgtu  a1, a2, .L1
    11c8:	bltu	a2,a1,11bc <__udivsi3+0x18>
.L2:
  li    a0, 0
    11cc:	li	a0,0
.L3:
  bltu  a1, a2, .L4
    11d0:	bltu	a1,a2,11dc <__udivsi3+0x38>
  sub   a1, a1, a2
    11d4:	sub	a1,a1,a2
  or    a0, a0, a3
    11d8:	or	a0,a0,a3
.L4:
  srli  a3, a3, 1
    11dc:	srli	a3,a3,0x1
  srli  a2, a2, 1
    11e0:	srli	a2,a2,0x1
  bnez  a3, .L3
    11e4:	bnez	a3,11d0 <__udivsi3+0x2c>
.L5:
  ret
    11e8:	ret

000011ec <__umodsi3>:
FUNC_END (__udivdi3)

FUNC_BEGIN (__umoddi3)
  /* Call __udivdi3(a0, a1), then return the remainder, which is in a1.  */
  move  t0, ra
    11ec:	mv	t0,ra
  jal   __udivdi3
    11f0:	jal	ra,11a4 <__udivsi3>
  move  a0, a1
    11f4:	mv	a0,a1
  jr    t0
    11f8:	jr	t0
FUNC_END (__umoddi3)

  /* Handle negative arguments to __divdi3.  */
.L10:
  neg   a0, a0
    11fc:	neg	a0,a0
  /* Zero is handled as a negative so that the result will not be inverted.  */
  bgtz  a1, .L12     /* Compute __udivdi3(-a0, a1), then negate the result.  */
    1200:	bgtz	a1,1210 <__umodsi3+0x24>

  neg   a1, a1
    1204:	neg	a1,a1
  j     __udivdi3    /* Compute __udivdi3(-a0, -a1).  */
    1208:	j	11a4 <__udivsi3>
.L11:                /* Compute __udivdi3(a0, -a1), then negate the result.  */
  neg   a1, a1
    120c:	neg	a1,a1
.L12:
  move  t0, ra
    1210:	mv	t0,ra
  jal   __udivdi3
    1214:	jal	ra,11a4 <__udivsi3>
  neg   a0, a0
    1218:	neg	a0,a0
  jr    t0
    121c:	jr	t0

00001220 <__modsi3>:
FUNC_END (__divdi3)

FUNC_BEGIN (__moddi3)
  move   t0, ra
    1220:	mv	t0,ra
  bltz   a1, .L31
    1224:	bltz	a1,1238 <__modsi3+0x18>
  bltz   a0, .L32
    1228:	bltz	a0,1240 <__modsi3+0x20>
.L30:
  jal    __udivdi3    /* The dividend is not negative.  */
    122c:	jal	ra,11a4 <__udivsi3>
  move   a0, a1
    1230:	mv	a0,a1
  jr     t0
    1234:	jr	t0
.L31:
  neg    a1, a1
    1238:	neg	a1,a1
  bgez   a0, .L30
    123c:	bgez	a0,122c <__modsi3+0xc>
.L32:
  neg    a0, a0
    1240:	neg	a0,a0
  jal    __udivdi3    /* The dividend is hella negative.  */
    1244:	jal	ra,11a4 <__udivsi3>
  neg    a0, a1
    1248:	neg	a0,a1
  jr     t0
    124c:	jr	t0

00001250 <exit>:
    1250:	addi	sp,sp,-16
    1254:	li	a1,0
    1258:	sw	s0,8(sp)
    125c:	sw	ra,12(sp)
    1260:	mv	s0,a0
    1264:	jal	ra,13e8 <__call_exitprocs>
    1268:	lw	a0,-36(gp) # 1e1c <_global_impure_ptr>
    126c:	lw	a5,60(a0)
    1270:	beqz	a5,1278 <exit+0x28>
    1274:	jalr	a5
    1278:	mv	a0,s0
    127c:	jal	ra,1608 <_exit>

00001280 <__libc_init_array>:
    1280:	addi	sp,sp,-16
    1284:	sw	s0,8(sp)
    1288:	sw	s2,0(sp)
    128c:	li	a5,0
    1290:	li	s2,0
    1294:	sub	s2,s2,a5
    1298:	sw	ra,12(sp)
    129c:	sw	s1,4(sp)
    12a0:	srai	s2,s2,0x2
    12a4:	beqz	s2,12c4 <__libc_init_array+0x44>
    12a8:	li	s0,0
    12ac:	li	s1,0
    12b0:	lw	a5,0(s0)
    12b4:	addi	s1,s1,1
    12b8:	addi	s0,s0,4
    12bc:	jalr	a5
    12c0:	bne	s2,s1,12b0 <__libc_init_array+0x30>
    12c4:	li	a5,0
    12c8:	li	s2,0
    12cc:	sub	s2,s2,a5
    12d0:	srai	s2,s2,0x2
    12d4:	beqz	s2,12f4 <__libc_init_array+0x74>
    12d8:	li	s0,0
    12dc:	li	s1,0
    12e0:	lw	a5,0(s0)
    12e4:	addi	s1,s1,1
    12e8:	addi	s0,s0,4
    12ec:	jalr	a5
    12f0:	bne	s2,s1,12e0 <__libc_init_array+0x60>
    12f4:	lw	ra,12(sp)
    12f8:	lw	s0,8(sp)
    12fc:	lw	s1,4(sp)
    1300:	lw	s2,0(sp)
    1304:	addi	sp,sp,16
    1308:	ret

0000130c <memset>:
    130c:	li	t1,15
    1310:	mv	a4,a0
    1314:	bgeu	t1,a2,1350 <memset+0x44>
    1318:	andi	a5,a4,15
    131c:	bnez	a5,13bc <memset+0xb0>
    1320:	bnez	a1,13a4 <memset+0x98>
    1324:	andi	a3,a2,-16
    1328:	andi	a2,a2,15
    132c:	add	a3,a3,a4
    1330:	sw	a1,0(a4) # fff87000 <__sp+0xfff77000>
    1334:	sw	a1,4(a4)
    1338:	sw	a1,8(a4)
    133c:	sw	a1,12(a4)
    1340:	addi	a4,a4,16
    1344:	bltu	a4,a3,1330 <memset+0x24>
    1348:	bnez	a2,1350 <memset+0x44>
    134c:	ret
    1350:	sub	a3,t1,a2
    1354:	slli	a3,a3,0x2
    1358:	auipc	t0,0x0
    135c:	add	a3,a3,t0
    1360:	jr	12(a3)
    1364:	sb	a1,14(a4)
    1368:	sb	a1,13(a4)
    136c:	sb	a1,12(a4)
    1370:	sb	a1,11(a4)
    1374:	sb	a1,10(a4)
    1378:	sb	a1,9(a4)
    137c:	sb	a1,8(a4)
    1380:	sb	a1,7(a4)
    1384:	sb	a1,6(a4)
    1388:	sb	a1,5(a4)
    138c:	sb	a1,4(a4)
    1390:	sb	a1,3(a4)
    1394:	sb	a1,2(a4)
    1398:	sb	a1,1(a4)
    139c:	sb	a1,0(a4)
    13a0:	ret
    13a4:	andi	a1,a1,255
    13a8:	slli	a3,a1,0x8
    13ac:	or	a1,a1,a3
    13b0:	slli	a3,a1,0x10
    13b4:	or	a1,a1,a3
    13b8:	j	1324 <memset+0x18>
    13bc:	slli	a3,a5,0x2
    13c0:	auipc	t0,0x0
    13c4:	add	a3,a3,t0
    13c8:	mv	t0,ra
    13cc:	jalr	-96(a3)
    13d0:	mv	ra,t0
    13d4:	addi	a5,a5,-16
    13d8:	sub	a4,a4,a5
    13dc:	add	a2,a2,a5
    13e0:	bgeu	t1,a2,1350 <memset+0x44>
    13e4:	j	1320 <memset+0x14>

000013e8 <__call_exitprocs>:
    13e8:	addi	sp,sp,-48
    13ec:	sw	s4,24(sp)
    13f0:	lw	s4,-36(gp) # 1e1c <_global_impure_ptr>
    13f4:	sw	s2,32(sp)
    13f8:	sw	ra,44(sp)
    13fc:	lw	s2,328(s4)
    1400:	sw	s0,40(sp)
    1404:	sw	s1,36(sp)
    1408:	sw	s3,28(sp)
    140c:	sw	s5,20(sp)
    1410:	sw	s6,16(sp)
    1414:	sw	s7,12(sp)
    1418:	sw	s8,8(sp)
    141c:	beqz	s2,145c <__call_exitprocs+0x74>
    1420:	mv	s6,a0
    1424:	mv	s7,a1
    1428:	li	s5,1
    142c:	li	s3,-1
    1430:	lw	s1,4(s2)
    1434:	addi	s0,s1,-1
    1438:	bltz	s0,145c <__call_exitprocs+0x74>
    143c:	slli	s1,s1,0x2
    1440:	add	s1,s2,s1
    1444:	beqz	s7,148c <__call_exitprocs+0xa4>
    1448:	lw	a5,260(s1)
    144c:	beq	a5,s7,148c <__call_exitprocs+0xa4>
    1450:	addi	s0,s0,-1
    1454:	addi	s1,s1,-4
    1458:	bne	s0,s3,1444 <__call_exitprocs+0x5c>
    145c:	lw	ra,44(sp)
    1460:	lw	s0,40(sp)
    1464:	lw	s1,36(sp)
    1468:	lw	s2,32(sp)
    146c:	lw	s3,28(sp)
    1470:	lw	s4,24(sp)
    1474:	lw	s5,20(sp)
    1478:	lw	s6,16(sp)
    147c:	lw	s7,12(sp)
    1480:	lw	s8,8(sp)
    1484:	addi	sp,sp,48
    1488:	ret
    148c:	lw	a5,4(s2)
    1490:	lw	a3,4(s1)
    1494:	addi	a5,a5,-1
    1498:	beq	a5,s0,14f4 <__call_exitprocs+0x10c>
    149c:	sw	zero,4(s1)
    14a0:	beqz	a3,1450 <__call_exitprocs+0x68>
    14a4:	lw	a5,392(s2)
    14a8:	sll	a4,s5,s0
    14ac:	lw	s8,4(s2)
    14b0:	and	a5,a4,a5
    14b4:	bnez	a5,14d8 <__call_exitprocs+0xf0>
    14b8:	jalr	a3
    14bc:	lw	a4,4(s2)
    14c0:	lw	a5,328(s4)
    14c4:	bne	a4,s8,14cc <__call_exitprocs+0xe4>
    14c8:	beq	a5,s2,1450 <__call_exitprocs+0x68>
    14cc:	beqz	a5,145c <__call_exitprocs+0x74>
    14d0:	mv	s2,a5
    14d4:	j	1430 <__call_exitprocs+0x48>
    14d8:	lw	a5,396(s2)
    14dc:	lw	a1,132(s1)
    14e0:	and	a4,a4,a5
    14e4:	bnez	a4,14fc <__call_exitprocs+0x114>
    14e8:	mv	a0,s6
    14ec:	jalr	a3
    14f0:	j	14bc <__call_exitprocs+0xd4>
    14f4:	sw	s0,4(s2)
    14f8:	j	14a0 <__call_exitprocs+0xb8>
    14fc:	mv	a0,a1
    1500:	jalr	a3
    1504:	j	14bc <__call_exitprocs+0xd4>

00001508 <atexit>:
    1508:	mv	a1,a0
    150c:	li	a3,0
    1510:	li	a2,0
    1514:	li	a0,0
    1518:	j	1570 <__register_exitproc>

0000151c <__libc_fini_array>:
    151c:	addi	sp,sp,-16
    1520:	sw	s0,8(sp)
    1524:	li	s0,0
    1528:	li	a5,0
    152c:	sub	a5,a5,s0
    1530:	sw	s1,4(sp)
    1534:	sw	ra,12(sp)
    1538:	srai	s1,a5,0x2
    153c:	beqz	s1,155c <__libc_fini_array+0x40>
    1540:	addi	a5,a5,-4
    1544:	add	s0,a5,s0
    1548:	lw	a5,0(s0)
    154c:	addi	s1,s1,-1
    1550:	addi	s0,s0,-4
    1554:	jalr	a5
    1558:	bnez	s1,1548 <__libc_fini_array+0x2c>
    155c:	lw	ra,12(sp)
    1560:	lw	s0,8(sp)
    1564:	lw	s1,4(sp)
    1568:	addi	sp,sp,16
    156c:	ret

00001570 <__register_exitproc>:
    1570:	lw	a4,-36(gp) # 1e1c <_global_impure_ptr>
    1574:	lw	a5,328(a4)
    1578:	beqz	a5,15d0 <__register_exitproc+0x60>
    157c:	lw	a4,4(a5)
    1580:	li	a6,31
    1584:	blt	a6,a4,1600 <__register_exitproc+0x90>
    1588:	slli	a6,a4,0x2
    158c:	beqz	a0,15b8 <__register_exitproc+0x48>
    1590:	add	t1,a5,a6
    1594:	sw	a2,136(t1)
    1598:	lw	a7,392(a5)
    159c:	li	a2,1
    15a0:	sll	a2,a2,a4
    15a4:	or	a7,a7,a2
    15a8:	sw	a7,392(a5)
    15ac:	sw	a3,264(t1)
    15b0:	li	a3,2
    15b4:	beq	a0,a3,15dc <__register_exitproc+0x6c>
    15b8:	addi	a4,a4,1
    15bc:	sw	a4,4(a5)
    15c0:	add	a5,a5,a6
    15c4:	sw	a1,8(a5)
    15c8:	li	a0,0
    15cc:	ret
    15d0:	addi	a5,a4,332
    15d4:	sw	a5,328(a4)
    15d8:	j	157c <__register_exitproc+0xc>
    15dc:	lw	a3,396(a5)
    15e0:	addi	a4,a4,1
    15e4:	sw	a4,4(a5)
    15e8:	or	a2,a3,a2
    15ec:	sw	a2,396(a5)
    15f0:	add	a5,a5,a6
    15f4:	sw	a1,8(a5)
    15f8:	li	a0,0
    15fc:	ret
    1600:	li	a0,-1
    1604:	ret

00001608 <_exit>:
    1608:	li	a7,93
    160c:	ecall
    1610:	bltz	a0,1618 <_exit+0x10>
    1614:	j	1614 <_exit+0xc>
    1618:	addi	sp,sp,-16
    161c:	sw	s0,8(sp)
    1620:	mv	s0,a0
    1624:	sw	ra,12(sp)
    1628:	neg	s0,s0
    162c:	jal	ra,1638 <__errno>
    1630:	sw	s0,0(a0)
    1634:	j	1634 <_exit+0x2c>

00001638 <__errno>:
    1638:	lw	a0,-64(gp) # 1e00 <_impure_ptr>
    163c:	ret

Disassembly of section .text.startup:

00001640 <main>:

void main(){
    1640:	addi	sp,sp,-80
    1644:	sw	ra,76(sp)
    1648:	sw	s0,72(sp)
    164c:	sw	s1,68(sp)
    1650:	sw	s2,64(sp)
    1654:	sw	s3,60(sp)
    1658:	sw	s4,56(sp)
    165c:	sw	s5,52(sp)
    1660:	sw	s6,48(sp)
    1664:	sw	s7,44(sp)
    1668:	sw	s8,40(sp)
    166c:	sw	s9,36(sp)
    1670:	sw	s10,32(sp)
    1674:	sw	s11,28(sp)

	ENABLE_INT
    1678:	li	t0,1
    167c:	auipc	t1,0xfffff
    1680:	addi	t1,t1,244 # 770 <enc_ISR>
    1684:	csrw	mtvec,t1
    1688:	csrw	mie,t0
	initialize();
	draw_bricks(bricksstate);
    168c:	addi	s8,gp,-1532 # 1844 <ball_pos>
	initialize();
    1690:	jal	ra,8b8 <initialize>
	draw_bricks(bricksstate);
    1694:	addi	s5,s8,32
    1698:	mv	a0,s5
    169c:	jal	ra,109c <draw_bricks>
	while (!enc_btn);
    16a0:	lw	a5,-1588(gp) # 180c <enc_btn>
    16a4:	beqz	a5,16a0 <main+0x60>
	game_active = 1;
    16a8:	li	a5,1
    16ac:	sw	a5,-1592(gp) # 1808 <game_active>
	ball_pos.x_fine = (21*16) << POS_DIV;
    16b0:	lui	a5,0x3
    16b4:	addi	a5,a5,-1536 # 2a00 <__frame_dummy_init_array_entry+0x784>
    16b8:	sw	a5,8(sp)
	ball_pos.y_fine = (PADDLE_Y - 6) << POS_DIV;
    16bc:	lui	a5,0x4
    16c0:	addi	a5,a5,64 # 4040 <__frame_dummy_init_array_entry+0x1dc4>
	enc_btn = 0;
    16c4:	sw	zero,-1588(gp) # 180c <enc_btn>
    16c8:	addi	s0,gp,-1572 # 181c <paddle_pos>
    16cc:	addi	s7,gp,-1516 # 1854 <ball_velocity>
	paddle_pos.x = 20;
    16d0:	li	s11,20
	ball_pos.y_fine = (PADDLE_Y - 6) << POS_DIV;
    16d4:	sw	a5,12(sp)

	while(1) {

		while (lives)
    16d8:	lw	a5,-1600(gp) # 1800 <lives>
    16dc:	beqz	a5,16d8 <main+0x98>
		{
			if (check_floor_collision(&ball_pos, FLOOR_Y)) {
    16e0:	li	a1,539
    16e4:	addi	a0,gp,-1532 # 1844 <ball_pos>
    16e8:	jal	ra,12c <check_floor_collision>
    16ec:	bnez	a0,1778 <main+0x138>
	if (game_active) paddle_pos.x += enc_count;
    16f0:	lw	a5,-1592(gp) # 1808 <game_active>
    16f4:	beqz	a5,1708 <main+0xc8>
    16f8:	lw	a5,-1576(gp) # 1818 <enc_count>
    16fc:	lw	a3,0(s0)
    1700:	add	a5,a5,a3
    1704:	sw	a5,0(s0)
	enc_count = 0;
    1708:	sw	zero,-1576(gp) # 1818 <enc_count>
	if (paddle_pos.x > PADDLE_MAX)
    170c:	lw	a3,0(s0)
    1710:	li	a5,39
    1714:	blt	a5,a3,1728 <main+0xe8>
	} else if (paddle_pos.x < PADDLE_MIN)
    1718:	lw	a3,0(s0)
    171c:	li	a5,3
    1720:	blt	a5,a3,172c <main+0xec>
		paddle_pos.x = PADDLE_MIN;
    1724:	li	a5,4
    1728:	sw	a5,0(s0)
				game_active = 1;
				enc_btn = 0;
			}

			update_paddle();
			int dscore = update_ball(&ball_pos, &ball_velocity, paddle_pos.x, bricksstate);
    172c:	lw	a2,0(s0)
    1730:	mv	a3,s5
    1734:	mv	a1,s7
    1738:	addi	a0,gp,-1532 # 1844 <ball_pos>
    173c:	jal	ra,3e0 <update_ball>
    1740:	mv	s10,a0
			if (dscore) draw_bricks(bricksstate);
    1744:	bnez	a0,176c <main+0x12c>
			score += dscore;
    1748:	lw	a3,-1596(gp) # 1804 <score>
    174c:	add	a5,a3,s10
    1750:	sw	a5,-1596(gp) # 1804 <score>

			update_graphics();
    1754:	jal	ra,98c <update_graphics>
    1758:	li	a5,1000
			for (int i = 0; i < 1000; i++)
			{
				asm("nop");
    175c:	nop
			for (int i = 0; i < 1000; i++)
    1760:	addi	a5,a5,-1
    1764:	bnez	a5,175c <main+0x11c>
    1768:	j	16d8 <main+0x98>
			if (dscore) draw_bricks(bricksstate);
    176c:	mv	a0,s5
    1770:	jal	ra,109c <draw_bricks>
    1774:	j	1748 <main+0x108>
				lives -= 1;
    1778:	lw	a5,-1600(gp) # 1800 <lives>
    177c:	addi	a5,a5,-1
    1780:	sw	a5,-1600(gp) # 1800 <lives>
	game_active = 0;
    1784:	sw	zero,-1592(gp) # 1808 <game_active>
	enc_btn = 0;
    1788:	sw	zero,-1588(gp) # 180c <enc_btn>
	paddle_pos.x = 20;
    178c:	sw	s11,0(s0)
	paddle_pos.y = PADDLE_Y;
    1790:	li	a5,520
    1794:	sw	a5,4(s0)
	ball_pos.x = 21*16;
    1798:	li	a5,336
    179c:	sw	a5,0(s8)
	ball_pos.x_fine = (21*16) << POS_DIV;
    17a0:	lw	a5,8(sp)
    17a4:	sw	a5,8(s8)
	ball_pos.y = PADDLE_Y - 6;
    17a8:	li	a5,514
    17ac:	sw	a5,4(s8)
	ball_pos.y_fine = (PADDLE_Y - 6) << POS_DIV;
    17b0:	lw	a5,12(sp)
    17b4:	sw	a5,12(s8)
	ball_velocity.x = 2;
    17b8:	li	a5,2
    17bc:	sw	a5,16(s8)
	ball_velocity.y = -2;
    17c0:	li	a5,-2
    17c4:	sw	a5,20(s8)
				update_graphics();
    17c8:	jal	ra,98c <update_graphics>
				while (!enc_btn);
    17cc:	lw	a5,-1588(gp) # 180c <enc_btn>
    17d0:	beqz	a5,17cc <main+0x18c>
				game_active = 1;
    17d4:	li	a5,1
    17d8:	sw	a5,-1592(gp) # 1808 <game_active>
				enc_btn = 0;
    17dc:	sw	zero,-1588(gp) # 180c <enc_btn>
    17e0:	j	16f0 <main+0xb0>

000017e4 <register_fini>:
    17e4:	li	a5,0
    17e8:	beqz	a5,17f8 <register_fini+0x14>
    17ec:	lui	a0,0x1
    17f0:	addi	a0,a0,1308 # 151c <__libc_fini_array>
    17f4:	j	1508 <atexit>
    17f8:	ret
